ccopy_reg
_reconstructor
p0
(ctictacstategen
StateMap
p1
c__builtin__
object
p2
Ntp3
Rp4
(dp5
S'index'
p6
(dp7
S'-XO-OXXXO'
p8
I0
sS'----X--O-'
p9
I1
sS'---OXO--X'
p10
I2
sS'OXOX--O-X'
p11
I4042
sS'O--X--OXX'
p12
I2278
sS'-XXXO-OXO'
p13
I5
sS'X-OXX-O-O'
p14
I6
sS'-X-OXXOO-'
p15
I3716
sS'OX-X-OX-O'
p16
I7
sS'----XXXOO'
p17
I9
sS'---XOO-X-'
p18
I10
sS'OXO-X-O-X'
p19
I11
sS'O-X----XO'
p20
I12
sS'X-OXXO---'
p21
I13
sS'OXOXOX---'
p22
I2435
sS'XOOX-O--X'
p23
I15
sS'XOOX-X--O'
p24
I16
sS'--O--XXXO'
p25
I17
sS'---XO---X'
p26
I18
sS'-XOX--OOX'
p27
I19
sS'XX-O-----'
p28
I20
sS'XX-OOX-OX'
p29
I21
sS'XO-OXOX--'
p30
I22
sS'-XOOO-X-X'
p31
I24
sS'OXOXO--X-'
p32
I2228
sS'---X-XXOO'
p33
I26
sS'XXO-OX--O'
p34
I2282
sS'-O-XOXX-O'
p35
I168
sS'XXOXXOOO-'
p36
I29
sS'-----XO--'
p37
I30
sS'XX-OOXXO-'
p38
I31
sS'OO-OX-X-X'
p39
I32
sS'-X--OXO--'
p40
I33
sS'X---XO-XO'
p41
I34
sS'XX-O--XOO'
p42
I35
sS'X---XOXOO'
p43
I3062
sS'XO-X----O'
p44
I2285
sS'OX--O-X-X'
p45
I38
sS'-X--OXO-X'
p46
I39
sS'XX-O----O'
p47
I40
sS'OOXO-X-X-'
p48
I41
sS'-----XO-X'
p49
I42
sS'X-XOO-O-X'
p50
I43
sS'--OXO-XOX'
p51
I44
sS'OX--O-X--'
p52
I45
sS'-X--OX-O-'
p53
I46
sS'-O-XOXX--'
p54
I47
sS'-XOX-OXO-'
p55
I4348
sS'XX-OOXXOO'
p56
I49
sS'-X-XOO---'
p57
I1410
sS'-----OXXO'
p58
I51
sS'XX-OOX-O-'
p59
I52
sS'XO----O-X'
p60
I3065
sS'XX-O--XO-'
p61
I54
sS'-X--O--OX'
p62
I4371
sS'-XXOO-X-O'
p63
I3379
sS'XX-O-OOXX'
p64
I4329
sS'XO-OO-XX-'
p65
I57
sS'----OOXX-'
p66
I58
sS'-OXOXX-O-'
p67
I59
sS'OX-X-OX--'
p68
I61
sS'X-OXX-O--'
p69
I62
sS'---OX-O-X'
p70
I63
sS'XOOOOXXX-'
p71
I65
sS'OXXX-OX-O'
p72
I3187
sS'XOOX-X---'
p73
I67
sS'-XOXO----'
p74
I4233
sS'--OOOXX-X'
p75
I409
sS'OO-OXXX-X'
p76
I70
sS'OX-O--XXO'
p77
I71
sS'-X-O---XO'
p78
I72
sS'X-X-OO-XO'
p79
I73
sS'XOOO-X-XX'
p80
I75
sS'OXO--XOXX'
p81
I76
sS'O--O-XX-X'
p82
I265
sS'X----XO--'
p83
I78
sS'-XO-O--XX'
p84
I79
sS'O-XX-O--X'
p85
I82
sS'XO-OOXX-X'
p86
I83
sS'-O-X--OXX'
p87
I84
sS'OX---OX--'
p88
I2107
sS'---X-XOOX'
p89
I85
sS'XXOOXX-O-'
p90
I86
sS'XX--X-OO-'
p91
I87
sS'-XXXOOOX-'
p92
I88
sS'-XX--OOX-'
p93
I89
sS'XXO-XXOO-'
p94
I90
sS'-OXO-X-XO'
p95
I91
sS'XOO--X-OX'
p96
I92
sS'XOXOX-OXO'
p97
I93
sS'XXOO-XOOX'
p98
I95
sS'-XXXO-O--'
p99
I96
sS'O-XX----O'
p100
I97
sS'OOX--XX--'
p101
I98
sS'-XO---O-X'
p102
I775
sS'XXOO-OX-X'
p103
I100
sS'X-OOXX-O-'
p104
I101
sS'--XXOXO-O'
p105
I103
sS'OXXO-X-O-'
p106
I104
sS'O-X--OX-X'
p107
I106
sS'XO-O-X--X'
p108
I107
sS'-OXO-X-X-'
p109
I108
sS'-XXXOOOXO'
p110
I109
sS'-XX--OOXO'
p111
I110
sS'XOXOX-OX-'
p112
I111
sS'XXOO-OX--'
p113
I112
sS'O-XX-----'
p114
I113
sS'OOX--XX-O'
p115
I114
sS'X-O--XO--'
p116
I115
sS'-XXXO-O-O'
p117
I116
sS'-OXX---O-'
p118
I117
sS'OXO---OXX'
p119
I118
sS'--XXOXO--'
p120
I120
sS'OO--XX--X'
p121
I121
sS'OXX-OO-X-'
p122
I713
sS'-OOX-X-XO'
p123
I123
sS'OX-O--XX-'
p124
I125
sS'O-XX-O---'
p125
I126
sS'-XO-O--X-'
p126
I127
sS'-X-O---X-'
p127
I128
sS'X-X-OO-X-'
p128
I129
sS'---X-XOO-'
p129
I774
sS'OX--XO--X'
p130
I132
sS'-O-X--OX-'
p131
I133
sS'XO-OOXX--'
p132
I134
sS'X-OXXOOX-'
p133
I135
sS'-OOX-XO-X'
p134
I136
sS'--XXOXOXO'
p135
I137
sS'X----XO-O'
p136
I138
sS'-OXOOX-X-'
p137
I815
sS'OO-OXXX--'
p138
I140
sS'XX-XXOO-O'
p139
I141
sS'XO--XXO-O'
p140
I2299
sS'X-O-XXXOO'
p141
I143
sS'OXO--XOX-'
p142
I144
sS'X--X-O--O'
p143
I145
sS'XXOOXX-OO'
p144
I147
sS'XXOXX-O-O'
p145
I148
sS'XOOO-X-X-'
p146
I149
sS'-X-OXO-OX'
p147
I1964
sS'X--O-XX-O'
p148
I2301
sS'-XXOO-XOX'
p149
I150
sS'--XX-O--O'
p150
I151
sS'XOX-O-X-O'
p151
I152
sS'XOOOXXX--'
p152
I153
sS'X-OX-O-OX'
p153
I154
sS'X---X-OO-'
p154
I155
sS'-XX---OXO'
p155
I156
sS'XXO-X--O-'
p156
I157
sS'OXOX-----'
p157
I158
sS'-OO-XX-OX'
p158
I159
sS'XOO-XXOX-'
p159
I160
sS'X------O-'
p160
I3078
sS'X-X--OO--'
p161
I162
sS'XXO---OOX'
p162
I163
sS'OXXXOOOX-'
p163
I164
sS'O--OXX--X'
p164
I165
sS'-XO-X-O--'
p165
I167
sS'---OOXOXX'
p166
I586
sS'OXX-X--OO'
p167
I3079
sS'XX-O-X-O-'
p168
I169
sS'OXX----OX'
p169
I1538
sS'OOXXXOO-X'
p170
I2783
sS'X-X--OOXO'
p171
I173
sS'OXXO-O-X-'
p172
I174
sS'OO-XXOOXX'
p173
I175
sS'----XOXO-'
p174
I177
sS'-XOOXO--X'
p175
I1005
sS'X-X-OOXO-'
p176
I179
sS'XO-O-XXOX'
p177
I180
sS'OX--OX--X'
p178
I181
sS'-OO--XXOX'
p179
I182
sS'OO--XXOXX'
p180
I183
sS'-XOO-OXX-'
p181
I184
sS'---OXOXXO'
p182
I185
sS'OX--OX---'
p183
I187
sS'O-O-XXXO-'
p184
I1237
sS'OXXO-OXOX'
p185
I189
sS'XX-O-X-OO'
p186
I190
sS'----XOXOX'
p187
I1079
sS'X-X-OOXOX'
p188
I192
sS'X-X--OOX-'
p189
I194
sS'OO--XXOX-'
p190
I1111
sS'XOO-XXO--'
p191
I197
sS'XX-OOXOXO'
p192
I3833
sS'X-XOOXX-O'
p193
I198
sS'-O-X--O-X'
p194
I199
sS'-X--OX-OX'
p195
I200
sS'X-XXOXO-O'
p196
I3443
sS'OO--XXX--'
p197
I202
sS'-O--X---X'
p198
I1160
sS'---OXOXX-'
p199
I204
sS'XOOO---XX'
p200
I205
sS'--X-X---O'
p201
I206
sS'X---XXOO-'
p202
I207
sS'--XX-O---'
p203
I208
sS'XOX-O-X--'
p204
I209
sS'O-X-OOX-X'
p205
I210
sS'X-O-OOXX-'
p206
I212
sS'XOOOXXX-O'
p207
I213
sS'XXO--XO-O'
p208
I3799
sS'XXO-X--OO'
p209
I215
sS'--OO-XX--'
p210
I216
sS'-XO-X-O-X'
p211
I217
sS'XOO-XXOXO'
p212
I218
sS'XOXO-X-O-'
p213
I219
sS'-O-XO-XXO'
p214
I2749
sS'OO--XO-XX'
p215
I220
sS'OX-OOXXOX'
p216
I221
sS'X-O-X-X-O'
p217
I222
sS'-OOXOX--X'
p218
I2318
sS'O-XOOX-X-'
p219
I3831
sS'-XOX-X-OO'
p220
I224
sS'XX-OXOX-O'
p221
I225
sS'XOXXXOO--'
p222
I226
sS'O-X-XX-OO'
p223
I227
sS'X-XO-OXO-'
p224
I228
sS'-OX--X-XO'
p225
I1316
sS'-XOOXXO-X'
p226
I230
sS'XX--OXOOX'
p227
I232
sS'OX---OXX-'
p228
I1550
sS'O-XOXO-X-'
p229
I234
sS'OXXXXO--O'
p230
I235
sS'OX-O-O-XX'
p231
I236
sS'OX-X--XOO'
p232
I3274
sS'XOX-X-O--'
p233
I237
sS'XX----OXO'
p234
I2874
sS'X-OXO---X'
p235
I238
sS'XX-XOX-OO'
p236
I239
sS'-X-OX-XOO'
p237
I240
sS'XO---X---'
p238
I241
sS'O--X-OXX-'
p239
I243
sS'-O-O---XX'
p240
I244
sS'XO-XOO--X'
p241
I245
sS'-----OXX-'
p242
I1003
sS'-OX-O-OXX'
p243
I248
sS'---XO--X-'
p244
I249
sS'XO-X-O-OX'
p245
I3022
sS'XOXO-XO--'
p246
I251
sS'-OO--XX-X'
p247
I252
sS'O---O-X-X'
p248
I119
sS'X-XX-O--O'
p249
I254
sS'OXOXXOXO-'
p250
I255
sS'XXO--OO-X'
p251
I256
sS'O--XX-XO-'
p252
I257
sS'X-OXOO--X'
p253
I258
sS'-XOXOO--X'
p254
I3163
sS'-O-XOOXX-'
p255
I259
sS'O--X-OXXO'
p256
I363
sS'XO--OXOXX'
p257
I3805
sS'-XXO---O-'
p258
I262
sS'XOX-XO-O-'
p259
I263
sS'OX-X-OXXO'
p260
I264
sS'XO-XO-O-X'
p261
I2427
sS'O-OO-X-XX'
p262
I266
sS'-OOOXXOXX'
p263
I267
sS'--XOO-XXO'
p264
I1546
sS'--X----OX'
p265
I269
sS'OXO-O-XX-'
p266
I270
sS'-XX-X-OO-'
p267
I273
sS'O--XX-XOO'
p268
I274
sS'-OO--XX--'
p269
I275
sS'XOX--XO-O'
p270
I4251
sS'XXOOOXXO-'
p271
I276
sS'X-OXO----'
p272
I277
sS'XX-O-O-XO'
p273
I3807
sS'OXOX-OXX-'
p274
I278
sS'XOXXXOO-O'
p275
I279
sS'O-X-XX-O-'
p276
I280
sS'-XOO---XX'
p277
I281
sS'--O--O-XX'
p278
I1939
sS'XXOX-XO-O'
p279
I283
sS'X-XO-OXOX'
p280
I284
sS'XO--XOXO-'
p281
I285
sS'XOOXOX-XO'
p282
I3809
sS'XOX-X-O-O'
p283
I286
sS'O-O-OXX-X'
p284
I287
sS'XX--OXOO-'
p285
I288
sS'XO---X--O'
p286
I290
sS'-XOOXXO--'
p287
I291
sS'OOX-XX--O'
p288
I292
sS'XX-XOO-XO'
p289
I293
sS'O-XX-OX--'
p290
I2165
sS'OX--OXOX-'
p291
I296
sS'XOXO--XO-'
p292
I1801
sS'OXXOXX-O-'
p293
I299
sS'OXX--OX-O'
p294
I3490
sS'--XO---X-'
p295
I300
sS'-XOX--XO-'
p296
I301
sS'OOXXXO-OX'
p297
I302
sS'-O-XOX-X-'
p298
I303
sS'-OXOX-OX-'
p299
I304
sS'-XXXOOOOX'
p300
I306
sS'OXOXOXXO-'
p301
I307
sS'--X--OXO-'
p302
I308
sS'X-XOOX-O-'
p303
I309
sS'OOXX-XXO-'
p304
I310
sS'XOX-OXO--'
p305
I311
sS'O---OX--X'
p306
I4379
sS'XXO-O--XO'
p307
I312
sS'OX-XX---O'
p308
I313
sS'XOX--XOXO'
p309
I315
sS'-X-O-XOX-'
p310
I316
sS'--OX--XXO'
p311
I317
sS'-O-X-OXOX'
p312
I2265
sS'XXO-XO---'
p313
I320
sS'-OX-XX-OO'
p314
I1911
sS'-OX-XO-X-'
p315
I322
sS'OXO-XOX--'
p316
I4392
sS'OOXX-XXOO'
p317
I325
sS'X-XO--X-O'
p318
I879
sS'-X-OOXOX-'
p319
I3573
sS'XXO-O--X-'
p320
I327
sS'XXOO-XO--'
p321
I3106
sS'X-XO--O-X'
p322
I3817
sS'XX--OO-X-'
p323
I3507
sS'X-O-OO-XX'
p324
I330
sS'XO-O-OXX-'
p325
I1726
sS'XOXOO-XXO'
p326
I1568
sS'-O--O-XX-'
p327
I333
sS'-XX--OX-O'
p328
I334
sS'-OX-XO-XO'
p329
I335
sS'-OX-XX-O-'
p330
I336
sS'OX-X-O-OX'
p331
I338
sS'-OXOX-OXX'
p332
I339
sS'----O---X'
p333
I340
sS'XXOXO--XO'
p334
I2547
sS'--OXOOXX-'
p335
I341
sS'OXXOXX-OO'
p336
I342
sS'OXX-XX-OO'
p337
I343
sS'---XO----'
p338
I344
sS'OX--OXOXX'
p339
I345
sS'-O-XOX-XO'
p340
I346
sS'--XO---XO'
p341
I347
sS'-XOX--XOO'
p342
I348
sS'O-OX---X-'
p343
I349
sS'O-XO-XXXO'
p344
I351
sS'---OXXXO-'
p345
I352
sS'X--OOXXXO'
p346
I354
sS'XX--O-O-X'
p347
I1572
sS'--O---XX-'
p348
I356
sS'XOO--XO-X'
p349
I357
sS'XOX--OO-X'
p350
I358
sS'--O-X--OX'
p351
I359
sS'X---O-X-O'
p352
I1573
sS'-XO--OX-X'
p353
I361
sS'OX---XXO-'
p354
I362
sS'O--OXXXO-'
p355
I2918
sS'XO-XX-OO-'
p356
I364
sS'-XO----X-'
p357
I365
sS'-XOXO--OX'
p358
I366
sS'----X-XOO'
p359
I367
sS'X--OX-XO-'
p360
I368
sS'OXOXX---O'
p361
I369
sS'-XOX--OXO'
p362
I370
sS'-XOO-O-XX'
p363
I3991
sS'OXX---O--'
p364
I372
sS'O-XOXO--X'
p365
I373
sS'--OXXOXOX'
p366
I374
sS'XX-XOO---'
p367
I375
sS'O-X-O-XOX'
p368
I376
sS'X--OXXXOO'
p369
I377
sS'XOOXX--O-'
p370
I378
sS'X-O---X--'
p371
I379
sS'-XO-XX-OO'
p372
I380
sS'-XXO-O-X-'
p373
I381
sS'OX-XOOXX-'
p374
I382
sS'-XOOX----'
p375
I1579
sS'-XXXO-OOX'
p376
I384
sS'XO--OXXXO'
p377
I387
sS'XO-OOXOXX'
p378
I2451
sS'XO--XXXOO'
p379
I3830
sS'XOXO-X---'
p380
I388
sS'XX-XOO--O'
p381
I390
sS'X-O---X-O'
p382
I391
sS'-XO-XX-O-'
p383
I392
sS'OXXX-OXO-'
p384
I393
sS'-X-OXOO-X'
p385
I395
sS'O-X-OXOX-'
p386
I1348
sS'-XXXO---O'
p387
I398
sS'OX---X-O-'
p388
I399
sS'XX-OO--XO'
p389
I4448
sS'---XX-OXO'
p390
I2279
sS'OXOOXOX-X'
p391
I401
sS'X-O-OOX-X'
p392
I402
sS'XO-X-X--O'
p393
I403
sS'--X-XOO--'
p394
I404
sS'XOX---X-O'
p395
I405
sS'-XO--OX--'
p396
I406
sS'--O---XXO'
p397
I408
sS'OX--OXO-X'
p398
I3121
sS'OXX-XXO-O'
p399
I2355
sS'OX---XXOO'
p400
I413
sS'OXOX-XX-O'
p401
I414
sS'-XX-OXO--'
p402
I415
sS'-X--O-XO-'
p403
I416
sS'OXO--X-X-'
p404
I417
sS'OXOXX----'
p405
I418
sS'----X-XO-'
p406
I419
sS'X--OX-XOO'
p407
I420
sS'X-X--OOOX'
p408
I4308
sS'-X-OOX-XO'
p409
I421
sS'XXOXOO---'
p410
I422
sS'-XOXOOXOX'
p411
I423
sS'XX---OO--'
p412
I424
sS'--OO-XXXO'
p413
I425
sS'XX-OO-XOX'
p414
I426
sS'O-XOX---X'
p415
I427
sS'O-XXX-O--'
p416
I429
sS'XXO---OX-'
p417
I430
sS'OOXX-X-XO'
p418
I431
sS'XO-O-X-OX'
p419
I432
sS'XX-OXXOO-'
p420
I433
sS'-XO--XOOX'
p421
I434
sS'XOX-XXO-O'
p422
I435
sS'-X---OXXO'
p423
I436
sS'-OXXO-XXO'
p424
I437
sS'--OX-XXO-'
p425
I438
sS'--OOXX--X'
p426
I439
sS'OX--XX--O'
p427
I440
sS'XXOOO-X-X'
p428
I441
sS'--XX-X-OO'
p429
I442
sS'OXX----XO'
p430
I444
sS'-XXX-OXOO'
p431
I445
sS'-XO--X-XO'
p432
I446
sS'X---OOXXO'
p433
I447
sS'XOXXOOO-X'
p434
I448
sS'-OOXXO--X'
p435
I450
sS'--XOX----'
p436
I452
sS'--X--XO-O'
p437
I453
sS'XO-X--OX-'
p438
I3839
sS'OO-XX--OX'
p439
I455
sS'-XOX-XOXO'
p440
I456
sS'-OOX--X-X'
p441
I458
sS'X--X--O-O'
p442
I3846
sS'O--X-X--O'
p443
I459
sS'X--O-OOXX'
p444
I460
sS'X---OOXX-'
p445
I461
sS'--OOXX---'
p446
I2877
sS'XO-OX-X--'
p447
I3842
sS'--XOX---O'
p448
I464
sS'--X--XO--'
p449
I466
sS'XXOOO-X--'
p450
I467
sS'OX-OO-XX-'
p451
I468
sS'----X-OX-'
p452
I2179
sS'-X-OOX-X-'
p453
I470
sS'--X---X-O'
p454
I471
sS'---X---O-'
p455
I472
sS'OXXX-XO-O'
p456
I473
sS'-O-XXOXO-'
p457
I474
sS'--XXOXOO-'
p458
I475
sS'XX--OX--O'
p459
I477
sS'OXOX--OX-'
p460
I3845
sS'-OXXO---X'
p461
I3919
sS'O-XXX-O-O'
p462
I479
sS'X-X-O--XO'
p463
I480
sS'-O-X-O--X'
p464
I2496
sS'XXOXOO--X'
p465
I482
sS'XXO---OXO'
p466
I483
sS'O-XOX----'
p467
I484
sS'XX-OO-XO-'
p468
I485
sS'--XO-OXX-'
p469
I2686
sS'XO-XXOO--'
p470
I487
sS'XX---OO-X'
p471
I488
sS'X--OX--O-'
p472
I1597
sS'OXOO-XX--'
p473
I490
sS'-----X-O-'
p474
I491
sS'-X-XOOXOX'
p475
I492
sS'---OXXOOX'
p476
I493
sS'O-XXO-OX-'
p477
I495
sS'XOOX-XOOX'
p478
I496
sS'XO-XOXOXO'
p479
I497
sS'OO--XXX-O'
p480
I3293
sS'X-OOOXX-X'
p481
I499
sS'X--X-O---'
p482
I500
sS'X-XXOXOO-'
p483
I501
sS'OX-XXO-O-'
p484
I502
sS'OX--X--OX'
p485
I504
sS'OO-XOXXX-'
p486
I505
sS'-OXO-XXO-'
p487
I506
sS'OOXXX--XO'
p488
I510
sS'X-XOXO--O'
p489
I3571
sS'OXOXO---X'
p490
I653
sS'X---XOOXO'
p491
I513
sS'XX-OOXX-O'
p492
I514
sS'OOXXO-X-X'
p493
I515
sS'OX-----X-'
p494
I516
sS'-OOX-OXX-'
p495
I517
sS'X-OOX-OX-'
p496
I518
sS'X-OX--O-X'
p497
I4246
sS'--XO-X---'
p498
I520
sS'X------OX'
p499
I521
sS'O-X-O---X'
p500
I523
sS'-XO-X-OOX'
p501
I524
sS'-XOX-X-O-'
p502
I525
sS'OXX-OO-XX'
p503
I526
sS'OOX-XX-XO'
p504
I527
sS'XO-O-OX-X'
p505
I528
sS'-X----OXO'
p506
I530
sS'OO-O-X-XX'
p507
I531
sS'XOXO-OXOX'
p508
I532
sS'X---XO---'
p509
I1605
sS'X---XOOX-'
p510
I534
sS'OX-----XO'
p511
I535
sS'XXO-OX-XO'
p512
I536
sS'--XOXXOXO'
p513
I537
sS'XOXOX---O'
p514
I538
sS'OX--X--O-'
p515
I540
sS'XXO-O-XXO'
p516
I541
sS'OX-XXO-OX'
p517
I542
sS'OXXXXOOO-'
p518
I544
sS'XO-XOXOX-'
p519
I546
sS'-OXX--OOX'
p520
I547
sS'O-XO-OX-X'
p521
I548
sS'-----X-OX'
p522
I549
sS'XOX-OO-XX'
p523
I2380
sS'X-XOO--X-'
p524
I551
sS'--OO-XXOX'
p525
I552
sS'OXOO-XX-X'
p526
I553
sS'-OXX-XOO-'
p527
I554
sS'XO--OXX--'
p528
I3804
sS'O--X-X---'
p529
I556
sS'O-XXO-OXX'
p530
I557
sS'OX-X-O-XO'
p531
I3862
sS'OXX-XOO-X'
p532
I559
sS'OX-X-OXO-'
p533
I561
sS'XOXO-XOX-'
p534
I562
sS'X-XX-O-OO'
p535
I563
sS'XO-X--OXO'
p536
I3864
sS'X-XO--XO-'
p537
I4242
sS'--X-O-XXO'
p538
I564
sS'XOOXXO---'
p539
I565
sS'X-OO---XX'
p540
I3151
sS'-XXO-----'
p541
I567
sS'X-XOOX--O'
p542
I568
sS'--XOO--X-'
p543
I569
sS'-XO-O-X-X'
p544
I570
sS'X-XOXXOO-'
p545
I571
sS'XO-XOXO--'
p546
I572
sS'---OX-XOX'
p547
I573
sS'-X-OXOXO-'
p548
I574
sS'X-X-O-XO-'
p549
I576
sS'OXOX--X--'
p550
I4089
sS'-OXOXX---'
p551
I577
sS'X--OX---O'
p552
I578
sS'X-O-XXOXO'
p553
I579
sS'---O----X'
p554
I1150
sS'X-X-O---O'
p555
I581
sS'X-O-XOX--'
p556
I582
sS'-OXX--X-O'
p557
I4135
sS'O-X---X-O'
p558
I583
sS'OX-OXXXO-'
p559
I3870
sS'--O-XOXX-'
p560
I585
sS'-XXXOO-XO'
p561
I587
sS'---OOXXXO'
p562
I1253
sS'-OXOXX--O'
p563
I590
sS'X-X-O-XOO'
p564
I591
sS'X-XOXO---'
p565
I592
sS'----OX-X-'
p566
I593
sS'---OX-XO-'
p567
I594
sS'X-X-O----'
p568
I596
sS'X--XX-O-O'
p569
I597
sS'X----X--O'
p570
I598
sS'XO-XOXO-X'
p571
I600
sS'--OOOXXX-'
p572
I601
sS'-OXOO--XX'
p573
I4358
sS'-XXOXO--O'
p574
I3591
sS'-OXX---OX'
p575
I602
sS'XOXO-XOXO'
p576
I603
sS'-O-XOOX-X'
p577
I604
sS'----X---O'
p578
I3911
sS'-XO-O-X--'
p579
I606
sS'X-XX-O-O-'
p580
I607
sS'XOX--OXOX'
p581
I3158
sS'XXOO-X---'
p582
I2829
sS'X-XXOOOOX'
p583
I609
sS'OXX-XOO--'
p584
I611
sS'OX-X-OXOX'
p585
I612
sS'OXOX-X--O'
p586
I1621
sS'-OOXXOOXX'
p587
I614
sS'-XXO----O'
p588
I615
sS'X-O--XO-X'
p589
I616
sS'X-XOOX---'
p590
I618
sS'-XOOX---X'
p591
I1622
sS'--OOXO-XX'
p592
I3829
sS'-X--XOO--'
p593
I622
sS'XOX-X-OXO'
p594
I1623
sS'X--OXOXO-'
p595
I625
sS'OOXX-OXXO'
p596
I626
sS'X-X-OO--X'
p597
I627
sS'-OX-XO---'
p598
I628
sS'-XXOO-O-X'
p599
I629
sS'-OOX----X'
p600
I630
sS'XO----X-O'
p601
I631
sS'OXO-XX---'
p602
I632
sS'--X---OXO'
p603
I633
sS'--XXX-O-O'
p604
I634
sS'XOXX-O-O-'
p605
I635
sS'-OOXX----'
p606
I636
sS'X-OXX---O'
p607
I1625
sS'X-XO----O'
p608
I638
sS'X--OOXXO-'
p609
I639
sS'-OO-XXXXO'
p610
I640
sS'XX-X--OO-'
p611
I641
sS'XO-XOOOXX'
p612
I3082
sS'XO-OOXXXO'
p613
I642
sS'XOOO-X--X'
p614
I643
sS'OXOXOX-X-'
p615
I644
sS'OO-XO--XX'
p616
I645
sS'OX-X-O---'
p617
I646
sS'-XO-O-XX-'
p618
I647
sS'---X-----'
p619
I648
sS'-X-OOX---'
p620
I649
sS'-X-O-X---'
p621
I1595
sS'XOOX-O-X-'
p622
I651
sS'O-X--OX--'
p623
I652
sS'---OO--XX'
p624
I2667
sS'XX-XOO-OX'
p625
I654
sS'XX-XOOO--'
p626
I655
sS'XO--OX-X-'
p627
I2647
sS'O--X--XXO'
p628
I656
sS'O-O-OX-XX'
p629
I566
sS'O-O-XX---'
p630
I595
sS'XXO----XO'
p631
I1629
sS'XX-XOOO-X'
p632
I661
sS'XX-XOO-O-'
p633
I662
sS'OX--XO-OX'
p634
I664
sS'XO-OOXXX-'
p635
I665
sS'-OOX-XXO-'
p636
I666
sS'---X----O'
p637
I667
sS'OXXOXX--O'
p638
I668
sS'-XO-O-XXO'
p639
I669
sS'XOOX--O-X'
p640
I3765
sS'-OOXX-OXX'
p641
I670
sS'-XO--OXX-'
p642
I2399
sS'-XOX--X-O'
p643
I672
sS'XXOOXX--O'
p644
I673
sS'-O-XX--OX'
p645
I674
sS'XO--OXO-X'
p646
I1632
sS'OXOO-X-XX'
p647
I676
sS'XOOX-O-XX'
p648
I677
sS'XOX--XXOO'
p649
I679
sS'OX-X-O--X'
p650
I680
sS'XXOO-OXX-'
p651
I681
sS'-XO-OX---'
p652
I682
sS'O-O--XXX-'
p653
I683
sS'-X-XOX--O'
p654
I4282
sS'OO-X-XX-O'
p655
I1680
sS'-OX-XO--X'
p656
I4145
sS'X--OOXXOX'
p657
I686
sS'-OX---O-X'
p658
I1767
sS'XO----OXX'
p659
I3170
sS'XOXX-O-OX'
p660
I690
sS'--OXXO---'
p661
I862
sS'XO-O--XOX'
p662
I693
sS'--OOX-XOX'
p663
I2847
sS'O--O--XX-'
p664
I3806
sS'-X--XOO-X'
p665
I697
sS'--X---OX-'
p666
I698
sS'XO-OXXO--'
p667
I699
sS'XO----X--'
p668
I700
sS'XX--O-X-O'
p669
I701
sS'X-X-OO---'
p670
I702
sS'-OXX--O-X'
p671
I2575
sS'-OXOXO--X'
p672
I703
sS'X-XO-----'
p673
I704
sS'OXXOO-X-X'
p674
I705
sS'O--OX-X-X'
p675
I706
sS'OX-X-X-O-'
p676
I4459
sS'X--O-X-OX'
p677
I707
sS'XOX-XX-OO'
p678
I708
sS'O-XOO-XX-'
p679
I663
sS'O-X---OXX'
p680
I3811
sS'-OO----XX'
p681
I712
sS'--X-O-OXX'
p682
I2839
sS'-----OX--'
p683
I3084
sS'--X-X-OOX'
p684
I715
sS'---O-X-X-'
p685
I716
sS'---XX-O--'
p686
I717
sS'XO-X---XO'
p687
I718
sS'-X--O-O-X'
p688
I719
sS'XXO--O--X'
p689
I720
sS'XX-OO-O-X'
p690
I721
sS'XOO-OXXX-'
p691
I722
sS'XO-O-XX--'
p692
I723
sS'--O-XXXO-'
p693
I394
sS'X-X-X-OO-'
p694
I726
sS'X--O-XXO-'
p695
I727
sS'---X-O---'
p696
I246
sS'X--X-OOXO'
p697
I729
sS'OXXXOOO-X'
p698
I730
sS'X-XXOO--O'
p699
I731
sS'XXO-----O'
p700
I732
sS'--OXX-OXO'
p701
I694
sS'-XOX-XO--'
p702
I2941
sS'--XXOOX-O'
p703
I1345
sS'OXX--OXO-'
p704
I735
sS'XO-XX-O--'
p705
I736
sS'X-OXXOO--'
p706
I737
sS'O-OX-XX-O'
p707
I738
sS'-X--OXXO-'
p708
I4015
sS'OXOX-XXO-'
p709
I740
sS'--OOX-X-X'
p710
I4439
sS'-X--X--OO'
p711
I742
sS'-OOO-XXX-'
p712
I743
sS'X--O-XXOO'
p713
I744
sS'O-XXOXO--'
p714
I745
sS'OXX--OXOX'
p715
I746
sS'X--X-OOX-'
p716
I747
sS'X----XXOO'
p717
I748
sS'XXO------'
p718
I749
sS'--OXX-OX-'
p719
I750
sS'XOXOO--XX'
p720
I3619
sS'X-XXOO---'
p721
I751
sS'OX---XX-O'
p722
I752
sS'X--OO-OXX'
p723
I4232
sS'---X-O--X'
p724
I753
sS'XO-XX-O-O'
p725
I754
sS'XOOXXO-X-'
p726
I755
sS'O-OX-XX--'
p727
I757
sS'-XOX-OXOX'
p728
I758
sS'X-OO-XXO-'
p729
I883
sS'----XO-OX'
p730
I4031
sS'---X---OX'
p731
I761
sS'O--X-XOOX'
p732
I1081
sS'-X--X--O-'
p733
I763
sS'OXOX-XXOO'
p734
I764
sS'X--OXX-OO'
p735
I3183
sS'XOO-O-XX-'
p736
I765
sS'XXO--O---'
p737
I766
sS'OXX-OOOXX'
p738
I4116
sS'-X----OOX'
p739
I2411
sS'OXOX-XO-X'
p740
I2585
sS'XOX----XO'
p741
I768
sS'--O-OXXOX'
p742
I769
sS'--XXOXXOO'
p743
I770
sS'--OX-XXOO'
p744
I771
sS'---O-X-XO'
p745
I772
sS'X-OX---XO'
p746
I773
sS'O-X---OX-'
p747
I99
sS'OX-O-XXO-'
p748
I1649
sS'O--OX-X--'
p749
I776
sS'OXXOO-X--'
p750
I777
sS'X-XXOO-XO'
p751
I778
sS'--X-X-OO-'
p752
I324
sS'XO-O-XX-O'
p753
I780
sS'X-XXO--OO'
p754
I781
sS'-XO--XO--'
p755
I782
sS'XOX--OXXO'
p756
I784
sS'XOO-XXXO-'
p757
I785
sS'OOX---OXX'
p758
I786
sS'--XXOOOXX'
p759
I787
sS'-XOO--X-X'
p760
I1945
sS'XX-O---XO'
p761
I789
sS'OO-----XX'
p762
I790
sS'--XOXX-O-'
p763
I791
sS'X--XO----'
p764
I792
sS'-OOOXX-XX'
p765
I793
sS'-OO--X-X-'
p766
I794
sS'XX--XO-OO'
p767
I795
sS'-X-O--XOX'
p768
I796
sS'O-OX-OXX-'
p769
I3438
sS'-X----OX-'
p770
I798
sS'OOXXO--X-'
p771
I799
sS'-XXOOXOX-'
p772
I800
sS'X-OX-XO-O'
p773
I801
sS'-XOXO-X--'
p774
I802
sS'XX-OO-OX-'
p775
I803
sS'----OX--X'
p776
I804
sS'OX--XXOOX'
p777
I805
sS'-X-XXOO-O'
p778
I806
sS'XXOO-O--X'
p779
I807
sS'XOX--OX--'
p780
I2848
sS'XOXXX--OO'
p781
I808
sS'-X--XX-OO'
p782
I809
sS'-XXOX--OO'
p783
I3906
sS'XOX-OOXX-'
p784
I812
sS'XOXX--OO-'
p785
I813
sS'--O-O-XX-'
p786
I814
sS'O-OX---XX'
p787
I816
sS'--------X'
p788
I817
sS'OX-X-X--O'
p789
I3907
sS'XO-OX-XO-'
p790
I4159
sS'-OO--X--X'
p791
I818
sS'O-OOXX--X'
p792
I819
sS'-OXXOOOXX'
p793
I820
sS'-XOXO-X-O'
p794
I821
sS'XOXX--OOX'
p795
I822
sS'X-XO-XOO-'
p796
I823
sS'O-X--XX-O'
p797
I824
sS'O-X--OXOX'
p798
I2439
sS'X-O------'
p799
I2421
sS'----OX---'
p800
I407
sS'XOX-OOXXO'
p801
I828
sS'OX--XXOO-'
p802
I829
sS'XX-OO-OXX'
p803
I830
sS'XOXOX--O-'
p804
I831
sS'OOXXOOXX-'
p805
I832
sS'-OX--OXOX'
p806
I833
sS'OXOX-O-XX'
p807
I834
sS'O--O-XX--'
p808
I835
sS'XX-OXXO-O'
p809
I836
sS'OXO--X--X'
p810
I3900
sS'-OO--X-XX'
p811
I457
sS'-X-O--XO-'
p812
I838
sS'-OXO-XX-O'
p813
I842
sS'XXOXO--O-'
p814
I4241
sS'XOO-XXXOO'
p815
I843
sS'--X-OO--X'
p816
I844
sS'--XOXX-OO'
p817
I498
sS'OOXXO--XX'
p818
I846
sS'----OX-XO'
p819
I847
sS'X--XO---O'
p820
I848
sS'XX-OO-X--'
p821
I3198
sS'-XO--XO-X'
p822
I849
sS'XX--XO-O-'
p823
I850
sS'XOO--XXOX'
p824
I851
sS'-X-OOX-OX'
p825
I852
sS'X-OX-XO--'
p826
I853
sS'-XXOOXOXO'
p827
I854
sS'--XXOOOX-'
p828
I855
sS'-OOXX-OX-'
p829
I4016
sS'-XOOX-X--'
p830
I858
sS'XO-O-X-X-'
p831
I3526
sS'XOX-XOO--'
p832
I859
sS'X--O---XO'
p833
I861
sS'X-OXOX--O'
p834
I4030
sS'OX--XXXOO'
p835
I863
sS'---XXOOXO'
p836
I864
sS'OXOXO-X-X'
p837
I865
sS'X-O--O-XX'
p838
I866
sS'OXX---XOO'
p839
I868
sS'-XXXOOO-X'
p840
I869
sS'--XX-OOXO'
p841
I870
sS'XXOOX-XO-'
p842
I871
sS'OX-O-XXXO'
p843
I827
sS'X-X-O-X-O'
p844
I873
sS'X--OXX-O-'
p845
I3205
sS'XOXXX-O-O'
p846
I875
sS'XO--XO-X-'
p847
I876
sS'OO-OXX-XX'
p848
I877
sS'-X-O-XXOO'
p849
I878
sS'-X-OX--O-'
p850
I4194
sS'-OXO-XX--'
p851
I880
sS'X-O---XOX'
p852
I881
sS'OXX--O-X-'
p853
I841
sS'-OXX-O---'
p854
I884
sS'---------'
p855
I885
sS'XXOO---OX'
p856
I886
sS'-XOXOX---'
p857
I3126
sS'X-O---XO-'
p858
I887
sS'-------OX'
p859
I4212
sS'XO--XO-XO'
p860
I889
sS'-OOOXXXOX'
p861
I890
sS'-X-O-XXO-'
p862
I892
sS'OXX-OX-O-'
p863
I1669
sS'X-OO-XXOX'
p864
I894
sS'X-OO-OX-X'
p865
I3253
sS'-OXX-O--X'
p866
I896
sS'-O----XOX'
p867
I897
sS'OXOO-X-X-'
p868
I898
sS'OXX--XOXO'
p869
I899
sS'XX-OXX-OO'
p870
I900
sS'XOO-OXX--'
p871
I3921
sS'--OXX-O-X'
p872
I4296
sS'OXX--O-XO'
p873
I901
sS'OX--OXX--'
p874
I903
sS'X-O--O-X-'
p875
I904
sS'OXOXO-X--'
p876
I905
sS'-XOOX-X-O'
p877
I906
sS'OXOO-X--X'
p878
I908
sS'-OX-OXX-O'
p879
I909
sS'O-XO-X---'
p880
I910
sS'XOX--OXO-'
p881
I3214
sS'X--O---X-'
p882
I912
sS'X-XOOXOX-'
p883
I2438
sS'-XXXOOO--'
p884
I914
sS'---XXOOX-'
p885
I915
sS'O---XO-XX'
p886
I3780
sS'OXXXOXOO-'
p887
I4291
sS'--XX-OOX-'
p888
I917
sS'OXX---XO-'
p889
I918
sS'OXXXO-OX-'
p890
I919
sS'XXOOX-XOO'
p891
I921
sS'XXOO--O-X'
p892
I3543
sS'XOO-----X'
p893
I922
sS'--XX--OXO'
p894
I923
sS'O---XX-O-'
p895
I924
sS'OOX-X----'
p896
I925
sS'-XOO-XO-X'
p897
I1025
sS'-XX---O-O'
p898
I3925
sS'XX-OX---O'
p899
I928
sS'X--O--X-O'
p900
I929
sS'O--X-XOXO'
p901
I930
sS'-XXOXO-O-'
p902
I4294
sS'X-XO--OOX'
p903
I931
sS'OXXXOO-OX'
p904
I932
sS'X---X---O'
p905
I933
sS'OXOXX--O-'
p906
I934
sS'XOX----OX'
p907
I1676
sS'O--X-X-OX'
p908
I938
sS'OO-X--XXO'
p909
I1105
sS'OX-----OX'
p910
I3516
sS'-XX-O---O'
p911
I940
sS'X-XOO-X-O'
p912
I941
sS'O-XO-X-X-'
p913
I942
sS'-X--O-OX-'
p914
I943
sS'-X-XO-OOX'
p915
I944
sS'OXOX-XOOX'
p916
I945
sS'X---O--X-'
p917
I946
sS'XOX-O---X'
p918
I1678
sS'XXOX-XOO-'
p919
I3222
sS'XOOX---XO'
p920
I949
sS'OOXXX-O--'
p921
I951
sS'--OO---XX'
p922
I952
sS'--O-X----'
p923
I242
sS'OO-X--XX-'
p924
I954
sS'-XX-O----'
p925
I955
sS'X-XOO-X--'
p926
I956
sS'O-OOXXX--'
p927
I957
sS'OOXXX-O-X'
p928
I958
sS'XOO-OXX-X'
p929
I3933
sS'--O-X---X'
p930
I960
sS'O-XO-X-XO'
p931
I1252
sS'OX----OXX'
p932
I3934
sS'O---X----'
p933
I964
sS'O--X-X-O-'
p934
I965
sS'X--O----X'
p935
I966
sS'-X--O-OXX'
p936
I1295
sS'---X-OXO-'
p937
I968
sS'O---XXX-O'
p938
I1785
sS'--OXX-X-O'
p939
I970
sS'OXOXX--OX'
p940
I971
sS'XO-XXO-XO'
p941
I973
sS'X-XOXO-O-'
p942
I974
sS'XX-O-O-OX'
p943
I975
sS'X--O--X--'
p944
I977
sS'O-X-XO-OX'
p945
I978
sS'O-XX---XO'
p946
I979
sS'X-X-X-O-O'
p947
I4131
sS'OOX-X---X'
p948
I981
sS'-O-XXOX--'
p949
I982
sS'O----XOXX'
p950
I984
sS'XX-OX-O--'
p951
I4452
sS'XOX---OX-'
p952
I985
sS'---XOX-O-'
p953
I986
sS'-X-XXO-O-'
p954
I1457
sS'---X-O-OX'
p955
I988
sS'OX-XOO--X'
p956
I989
sS'-XX--X-OO'
p957
I990
sS'X----OX-O'
p958
I991
sS'XXOOXXO--'
p959
I993
sS'XX--XOO-O'
p960
I994
sS'OXXOOXXO-'
p961
I995
sS'XX--XOOO-'
p962
I3312
sS'-OXXOXO--'
p963
I996
sS'-X---XOO-'
p964
I997
sS'--OOXX-OX'
p965
I1514
sS'XOXXO-OXO'
p966
I1000
sS'O-OXX--X-'
p967
I1001
sS'-XO-OXX-O'
p968
I1002
sS'OXO---XX-'
p969
I1004
sS'---XOOOXX'
p970
I1548
sS'OXXOX--O-'
p971
I1006
sS'X-OX-OOX-'
p972
I3366
sS'OXXX-XOO-'
p973
I1565
sS'OO-XX-XO-'
p974
I1008
sS'-XXOXOOOX'
p975
I1009
sS'XX--O-XO-'
p976
I1010
sS'-X---OX-O'
p977
I1013
sS'XOXX-O---'
p978
I1014
sS'XOXOO---X'
p979
I733
sS'XOX-XOOXO'
p980
I1016
sS'O---XOXX-'
p981
I1017
sS'O-O-XXXOX'
p982
I1018
sS'X-O-OX---'
p983
I1019
sS'O-O-X-X--'
p984
I328
sS'X-OOX--X-'
p985
I1022
sS'-XO-OXX--'
p986
I1023
sS'XOXXO-OX-'
p987
I1024
sS'OXO-O--XX'
p988
I926
sS'OXO---XXO'
p989
I1026
sS'XO-O--X-X'
p990
I1027
sS'XX--O-XOO'
p991
I1029
sS'X-XOX--O-'
p992
I3124
sS'X-O-OX--X'
p993
I1030
sS'-X---OX--'
p994
I1031
sS'XOXX-O--O'
p995
I1032
sS'XOX-XOOX-'
p996
I1033
sS'OOX-X-OX-'
p997
I1034
sS'OO-XX-XOX'
p998
I1035
sS'XX---OOOX'
p999
I1036
sS'OXO-XX-OX'
p1000
I1037
sS'X--XOXO-O'
p1001
I3235
sS'OXXOX--OX'
p1002
I1039
sS'X-OOX--XO'
p1003
I1040
sS'X---XX-OO'
p1004
I1041
sS'--XX-OXO-'
p1005
I1042
sS'-O-XXOX-O'
p1006
I1043
sS'-----O--X'
p1007
I1044
sS'XOX---OXO'
p1008
I1046
sS'----X----'
p1009
I1047
sS'-X---XOOX'
p1010
I1048
sS'-X-XXO-OO'
p1011
I1049
sS'XO-OO-X-X'
p1012
I3262
sS'O----XOX-'
p1013
I1051
sS'O--OX---X'
p1014
I1011
sS'-XXOXXOO-'
p1015
I1053
sS'XXOOXXO-O'
p1016
I1054
sS'--OXXO-OX'
p1017
I619
sS'X----OX--'
p1018
I1056
sS'-O--XOOXX'
p1019
I1057
sS'-O--XOX--'
p1020
I1058
sS'---XOX-OX'
p1021
I1059
sS'X-OO-X---'
p1022
I1061
sS'--X-OOXXO'
p1023
I1063
sS'XO-O-XXO-'
p1024
I188
sS'OXXX--OXO'
p1025
I1065
sS'X-X--O---'
p1026
I1066
sS'OX-OOX--X'
p1027
I1067
sS'OXX-XO-OX'
p1028
I1068
sS'-XO-O---X'
p1029
I1069
sS'-XXO-XOO-'
p1030
I1070
sS'XXO-X-O--'
p1031
I1071
sS'OX-XO---X'
p1032
I1072
sS'X-OXOO-X-'
p1033
I1073
sS'-OXO-O-XX'
p1034
I1074
sS'--X-XO-XO'
p1035
I1075
sS'O-OXOXXOX'
p1036
I1076
sS'O-X--XXOO'
p1037
I1077
sS'XOX------'
p1038
I1078
sS'O-XX-O-XO'
p1039
I1080
sS'-OXX--O--'
p1040
I2913
sS'XO--XXOO-'
p1041
I3956
sS'OXOXO-XX-'
p1042
I1084
sS'OXO--XXOX'
p1043
I1704
sS'XX--O---O'
p1044
I1086
sS'--XO--OXX'
p1045
I1087
sS'----X--XO'
p1046
I1088
sS'-O-OXXO-X'
p1047
I560
sS'O-XXOOXX-'
p1048
I1090
sS'-XXOXOO-X'
p1049
I4405
sS'XOXO-OOXX'
p1050
I3246
sS'XX-OO---X'
p1051
I1093
sS'OX-OOXXX-'
p1052
I1094
sS'O--O-XXXO'
p1053
I610
sS'-OXOOXXXO'
p1054
I1096
sS'XOO---XXO'
p1055
I1097
sS'O-XX-O-X-'
p1056
I1098
sS'XX-OO----'
p1057
I1099
sS'-X---XXOO'
p1058
I1100
sS'X-OOOXXOX'
p1059
I1101
sS'XO-O---X-'
p1060
I2317
sS'XX--O----'
p1061
I1103
sS'O-X-X-OOX'
p1062
I2068
sS'XXO-XXO-O'
p1063
I3066
sS'X--O-----'
p1064
I939
sS'XX-OOX-XO'
p1065
I1106
sS'XO-OOX-XX'
p1066
I2472
sS'OOXXX---O'
p1067
I3958
sS'O--O-XXX-'
p1068
I1109
sS'--XO--OX-'
p1069
I1110
sS'-O-OX--XX'
p1070
I3191
sS'XOXXOO---'
p1071
I2722
sS'-OXOOXXX-'
p1072
I1112
sS'XOO---XX-'
p1073
I1113
sS'OX-XO----'
p1074
I1114
sS'X-OXOO-XX'
p1075
I1116
sS'-XXOO-OX-'
p1076
I1711
sS'O---X---X'
p1077
I1378
sS'--X-OOXX-'
p1078
I1331
sS'X-X--O--O'
p1079
I1120
sS'O-XOO-X-X'
p1080
I1257
sS'XX--XOXOO'
p1081
I1122
sS'XXO-X-O-O'
p1082
I1123
sS'OOXX----X'
p1083
I2233
sS'X-OO-X--X'
p1084
I1125
sS'OXX-XO-O-'
p1085
I1126
sS'OXO-OX--X'
p1086
I1713
sS'XOX-----O'
p1087
I1129
sS'O-XOXX-XO'
p1088
I1130
sS'O-X--XXO-'
p1089
I1131
sS'XO-O-O-XX'
p1090
I3891
sS'-O-X-----'
p1091
I1132
sS'XX--OO-OX'
p1092
I4420
sS'-X-------'
p1093
I1133
sS'O-XXO-O-X'
p1094
I3930
sS'-XX--O-O-'
p1095
I1134
sS'X---OO-XX'
p1096
I1135
sS'O-X-X--XO'
p1097
I3626
sS'O-XX--O--'
p1098
I1136
sS'X--X--OOX'
p1099
I1137
sS'-OXX--XO-'
p1100
I3693
sS'O-XO--XXO'
p1101
I1138
sS'-O--XXX-O'
p1102
I1139
sS'---O--XX-'
p1103
I508
sS'X-OO-XOXX'
p1104
I1141
sS'X-O---XXO'
p1105
I1142
sS'--XX-O-XO'
p1106
I1143
sS'OOXX--OXX'
p1107
I1144
sS'--XXX--OO'
p1108
I1145
sS'O-X---XOX'
p1109
I1146
sS'----OX-OX'
p1110
I1147
sS'XXOO---XO'
p1111
I1148
sS'OXXX-OOX-'
p1112
I1149
sS'O--OXX-XO'
p1113
I1151
sS'--X-O-X-O'
p1114
I1152
sS'--XO-OOXX'
p1115
I1153
sS'-X-XOO-X-'
p1116
I1154
sS'OXXX--O--'
p1117
I1155
sS'XOO-OX-X-'
p1118
I1716
sS'-X--XOOOX'
p1119
I1156
sS'X-XOOX-XO'
p1120
I1158
sS'OO--XX---'
p1121
I1159
sS'OXXO-O-XX'
p1122
I203
sS'X---OOX-X'
p1123
I3969
sS'X-XO-X--O'
p1124
I4382
sS'XO-O--OXX'
p1125
I1162
sS'-XX---OOX'
p1126
I1163
sS'X-X----OO'
p1127
I1164
sS'XXOXO----'
p1128
I1165
sS'-XOOXXXO-'
p1129
I1166
sS'O--OXX-X-'
p1130
I1169
sS'X--OXXOXO'
p1131
I1170
sS'-OX-XOO-X'
p1132
I1171
sS'-X-XOO-XO'
p1133
I1172
sS'--X-O-X--'
p1134
I1173
sS'X-X--OO-X'
p1135
I1174
sS'O-OXOXXX-'
p1136
I3971
sS'XOXOXXOO-'
p1137
I1176
sS'OXXX--O-O'
p1138
I1177
sS'O--OXX---'
p1139
I1178
sS'OXOOOXXX-'
p1140
I1179
sS'X-XOX-OO-'
p1141
I1180
sS'-O-X--XXO'
p1142
I476
sS'XO---OXOX'
p1143
I2487
sS'-O-OXXXXO'
p1144
I1183
sS'O-XXX---O'
p1145
I1184
sS'OX-XXOOOX'
p1146
I1185
sS'X-XO-OXXO'
p1147
I2488
sS'X-XX---OO'
p1148
I1719
sS'-XOOXXXOO'
p1149
I1189
sS'X-X----O-'
p1150
I1190
sS'XXOXO---O'
p1151
I1191
sS'-OOXXOX--'
p1152
I1192
sS'X-OO-XOX-'
p1153
I1193
sS'-X------O'
p1154
I1194
sS'O-X---XO-'
p1155
I1196
sS'--XO-O-XX'
p1156
I2491
sS'OOXX--OX-'
p1157
I1199
sS'-O-X----X'
p1158
I1200
sS'O-XO--XX-'
p1159
I1203
sS'OXXO-OXXO'
p1160
I1204
sS'---O--XXO'
p1161
I1205
sS'XO-OXX-O-'
p1162
I1206
sS'X--X--OO-'
p1163
I1207
sS'O-XX--O-X'
p1164
I1208
sS'XXOO---X-'
p1165
I1209
sS'X---OO-X-'
p1166
I1210
sS'-XX--O-OX'
p1167
I1211
sS'--O-OX-XX'
p1168
I1212
sS'--XXOO--X'
p1169
I1213
sS'-OX-X---O'
p1170
I1215
sS'-O-X-X-O-'
p1171
I2771
sS'-OOX---XX'
p1172
I1967
sS'OXXO-----'
p1173
I1218
sS'XX--OOX-O'
p1174
I2495
sS'XO-----OX'
p1175
I1220
sS'XOXO--X--'
p1176
I1221
sS'-XOO-X-OX'
p1177
I1222
sS'XXO---X-O'
p1178
I4119
sS'XXO--XXOO'
p1179
I3224
sS'--X-OXX-O'
p1180
I289
sS'XOXXX-OO-'
p1181
I1225
sS'OX--X----'
p1182
I3263
sS'OOX--XOX-'
p1183
I1227
sS'---XXO---'
p1184
I1228
sS'---XO-OXX'
p1185
I1229
sS'OOXXX-OOX'
p1186
I1230
sS'X-OXO--XO'
p1187
I1231
sS'-XX-----O'
p1188
I1232
sS'-XXO--OXO'
p1189
I400
sS'XOXO-O--X'
p1190
I2336
sS'-O-O-XOXX'
p1191
I23
sS'OX--XOXO-'
p1192
I1236
sS'OXO--XO-X'
p1193
I1238
sS'--XX---OO'
p1194
I1240
sS'OO-X-O-XX'
p1195
I1241
sS'X-X---O-O'
p1196
I1242
sS'--OXX-XOO'
p1197
I1243
sS'OX-O--X-X'
p1198
I1244
sS'XO--XO---'
p1199
I1245
sS'-X-XO--O-'
p1200
I2502
sS'XOOXX--XO'
p1201
I1247
sS'XOX-OX---'
p1202
I3982
sS'---XOOXOX'
p1203
I1249
sS'XXOOO---X'
p1204
I1250
sS'OX-O--X--'
p1205
I1251
sS'-XXO--OX-'
p1206
I1254
sS'--OXX--OX'
p1207
I1256
sS'O--XOO-XX'
p1208
I2989
sS'--XX---O-'
p1209
I1258
sS'XO-OOX--X'
p1210
I1259
sS'OXX-OXXO-'
p1211
I1260
sS'-OXOX-O-X'
p1212
I1846
sS'---XX---O'
p1213
I1262
sS'X-X---O--'
p1214
I1263
sS'--OXX-XO-'
p1215
I1264
sS'OX--XOXOX'
p1216
I1265
sS'-X-O--O-X'
p1217
I1267
sS'--X-OXOX-'
p1218
I1268
sS'---XO-OX-'
p1219
I1269
sS'-OX-X----'
p1220
I1270
sS'X--O-X-O-'
p1221
I4237
sS'-O-XO--XX'
p1222
I1271
sS'XX-O-OO-X'
p1223
I1272
sS'XOXO--X-O'
p1224
I1273
sS'--O-OX-X-'
p1225
I1274
sS'--XXOO---'
p1226
I1275
sS'X--OO-XX-'
p1227
I4223
sS'-OOX---X-'
p1228
I1276
sS'O-X-OXXO-'
p1229
I1277
sS'--XO-XO--'
p1230
I1278
sS'OXXO----X'
p1231
I1279
sS'XO--X-O--'
p1232
I1280
sS'---XXO--O'
p1233
I1281
sS'O-OOX-X-X'
p1234
I1282
sS'XO-X-O-XO'
p1235
I1283
sS'X---O--XO'
p1236
I1284
sS'OX--XOO-X'
p1237
I2753
sS'-O-XX-OXO'
p1238
I1285
sS'OXXO-XXOO'
p1239
I1287
sS'O--X-----'
p1240
I1288
sS'XX-O--OXO'
p1241
I1289
sS'--O-X--X-'
p1242
I1290
sS'OXX-X-OO-'
p1243
I1291
sS'OOXX--O-X'
p1244
I2426
sS'-X-O-X-XO'
p1245
I1292
sS'X--O--XO-'
p1246
I1293
sS'-XXOOX---'
p1247
I1294
sS'XOOX---X-'
p1248
I967
sS'-XOOOXXOX'
p1249
I1296
sS'-X--OOX--'
p1250
I1297
sS'X-OX--OXO'
p1251
I1737
sS'--O-XO--X'
p1252
I1299
sS'XXO-XOO--'
p1253
I1300
sS'O-XX-XOO-'
p1254
I1301
sS'OXXOX---O'
p1255
I1302
sS'-X-OXX-OO'
p1256
I1303
sS'OO-X-XOX-'
p1257
I1304
sS'XOXOOXX-O'
p1258
I1305
sS'-O--X-XOX'
p1259
I1306
sS'X--X-OO-X'
p1260
I1307
sS'OOXXXO-XO'
p1261
I1308
sS'-O----XXO'
p1262
I2909
sS'-XXO-OO-X'
p1263
I4324
sS'-XO-OX-X-'
p1264
I1310
sS'-X--XXO-O'
p1265
I1311
sS'-X-X-X-OO'
p1266
I2577
sS'OOXX-OX--'
p1267
I1314
sS'X--XO-O--'
p1268
I1315
sS'XO--O-X--'
p1269
I3992
sS'-O--XX-XO'
p1270
I1319
sS'OOXX-OX-X'
p1271
I1320
sS'-X-OXX-O-'
p1272
I1321
sS'X--XO-O-X'
p1273
I1322
sS'XOXOOXX--'
p1274
I1323
sS'OXOX-X-XO'
p1275
I1742
sS'-OX-OOXX-'
p1276
I1325
sS'-OX-X--XO'
p1277
I1326
sS'-XO-OX-XO'
p1278
I1327
sS'OOXXXO-X-'
p1279
I1328
sS'XX-XOXO-O'
p1280
I1329
sS'X---O-O-X'
p1281
I3995
sS'O-XXXO-OX'
p1282
I1330
sS'-O--X-XO-'
p1283
I166
sS'XXOXX-OO-'
p1284
I1744
sS'X--X-OO--'
p1285
I1334
sS'---XOX-XO'
p1286
I1335
sS'XO-X-O-X-'
p1287
I1336
sS'OXX-X-OOX'
p1288
I1338
sS'-O-XX-OX-'
p1289
I1339
sS'-X---X--O'
p1290
I1340
sS'-OXO--XOX'
p1291
I1341
sS'XOXO----X'
p1292
I3576
sS'XX-O--OX-'
p1293
I1342
sS'OXXO-XXO-'
p1294
I1343
sS'-X--OOX-X'
p1295
I1344
sS'--O--X-OX'
p1296
I2997
sS'-XXOOX--O'
p1297
I1346
sS'---OX--OX'
p1298
I469
sS'XXO-OO-XX'
p1299
I3281
sS'--OOXX-XO'
p1300
I1350
sS'X-OO--XXO'
p1301
I3101
sS'XO-OX-OX-'
p1302
I1352
sS'O--O-X-XX'
p1303
I2208
sS'OXX-OOXX-'
p1304
I1354
sS'-X-X-OOX-'
p1305
I1355
sS'OX-OX-XO-'
p1306
I1356
sS'XXOO-X-XO'
p1307
I2734
sS'X--XOXO--'
p1308
I3282
sS'XXOX--OXO'
p1309
I1358
sS'--XXXOOO-'
p1310
I1359
sS'-O-XXO---'
p1311
I1360
sS'X-OX-XOO-'
p1312
I1361
sS'-XOXXO---'
p1313
I1362
sS'-XXOO--XO'
p1314
I1363
sS'X--XOO--X'
p1315
I1365
sS'OXXOOX-X-'
p1316
I1366
sS'OX-XX-O--'
p1317
I1367
sS'-X-OX---O'
p1318
I1368
sS'-OXX-OXOX'
p1319
I1369
sS'--XXOOO-X'
p1320
I1370
sS'--O---OXX'
p1321
I1371
sS'XOO--XX--'
p1322
I1372
sS'XXOOXXOO-'
p1323
I1373
sS'-XOO---X-'
p1324
I1374
sS'XOOXO--X-'
p1325
I2631
sS'XOX--OOXX'
p1326
I1376
sS'X--OOX---'
p1327
I1377
sS'XOXO--XXO'
p1328
I1379
sS'-O-XXO-XO'
p1329
I895
sS'XOXOOXOX-'
p1330
I1382
sS'--OX--XO-'
p1331
I1383
sS'XOOXX-O--'
p1332
I1384
sS'OXXXO--OX'
p1333
I1385
sS'--XX-XO-O'
p1334
I1387
sS'O-X--OXXO'
p1335
I1388
sS'-X-OX----'
p1336
I1389
sS'O---XOOXX'
p1337
I1390
sS'OX-XX-O-O'
p1338
I1391
sS'XXOO-OOXX'
p1339
I1392
sS'XOO--XX-O'
p1340
I1393
sS'-O-O-XXOX'
p1341
I695
sS'OXOOXXXO-'
p1342
I1752
sS'-XOXXOO--'
p1343
I2471
sS'OXXXO--O-'
p1344
I1396
sS'XXOOX---O'
p1345
I3373
sS'-OXX-OXO-'
p1346
I1397
sS'-O-XXO-X-'
p1347
I1398
sS'X--OXXOO-'
p1348
I1399
sS'O-X-XXOXO'
p1349
I1400
sS'O----OX-X'
p1350
I1401
sS'X-OO-XO-X'
p1351
I1402
sS'X--OOX--X'
p1352
I1403
sS'OX-X--O-X'
p1353
I4249
sS'X-OX-XOOX'
p1354
I1404
sS'--XXXOOOX'
p1355
I1405
sS'-XO---XXO'
p1356
I1406
sS'-O-XXO--X'
p1357
I1407
sS'-X-X-OOXO'
p1358
I1408
sS'X--XOO---'
p1359
I1409
sS'--X----O-'
p1360
I2960
sS'-X-X-XO-O'
p1361
I1411
sS'-O-X-OOXX'
p1362
I1413
sS'O-XX-OXXO'
p1363
I3295
sS'-XXOXXO-O'
p1364
I1415
sS'OX-OX-XOX'
p1365
I1416
sS'-XXOO--X-'
p1366
I1417
sS'O-XO-XX--'
p1367
I1418
sS'-O--OXOXX'
p1368
I1419
sS'XOO--OX-X'
p1369
I3155
sS'X-XOXOO--'
p1370
I4259
sS'-XX--OO--'
p1371
I1420
sS'X--O-OXXO'
p1372
I1421
sS'OXOXOOX-X'
p1373
I3051
sS'-OX-O-X--'
p1374
I1422
sS'OXXX-OOOX'
p1375
I3647
sS'--O--XOX-'
p1376
I1424
sS'XX-O-OXXO'
p1377
I1425
sS'-XO-OOX-X'
p1378
I1426
sS'OX---XOX-'
p1379
I2527
sS'---O-XXOX'
p1380
I1429
sS'OXX-O----'
p1381
I756
sS'OO---XXX-'
p1382
I1432
sS'-X-XO-OXO'
p1383
I1433
sS'X--XOO-X-'
p1384
I1435
sS'-OX---X-O'
p1385
I1436
sS'O-X-XO--X'
p1386
I1437
sS'---XO-O-X'
p1387
I4164
sS'O--XX-OXO'
p1388
I1438
sS'XOOOX-XX-'
p1389
I1439
sS'-OXXO-X-O'
p1390
I1440
sS'OXOXOO-XX'
p1391
I1441
sS'-XXO---OX'
p1392
I1442
sS'OXXX--OOX'
p1393
I1443
sS'XO---OXX-'
p1394
I1444
sS'O---XX--O'
p1395
I1446
sS'OOXX-X--O'
p1396
I1447
sS'--X--O-X-'
p1397
I1448
sS'--O--XO-X'
p1398
I1449
sS'OX-XO-X--'
p1399
I1450
sS'X--XX-OO-'
p1400
I2880
sS'-O-XOX---'
p1401
I1452
sS'XXO-OO--X'
p1402
I1453
sS'----XXOO-'
p1403
I1454
sS'-OOOXX-X-'
p1404
I1455
sS'X--XOO-XO'
p1405
I1456
sS'-OXOXXO--'
p1406
I1458
sS'-OX---X--'
p1407
I1459
sS'-XO--OXOX'
p1408
I3302
sS'XOX-XO-XO'
p1409
I2448
sS'X-OO-X-OX'
p1410
I1461
sS'XOOOX-XXO'
p1411
I1462
sS'-OXXO-X--'
p1412
I1463
sS'XO----OX-'
p1413
I3197
sS'XO---OXXO'
p1414
I1464
sS'XO--OX--X'
p1415
I1465
sS'O-X-XO---'
p1416
I1466
sS'OOXX-X---'
p1417
I1467
sS'--X--O-XO'
p1418
I1468
sS'OXO--OXX-'
p1419
I1469
sS'--O--XOXX'
p1420
I1470
sS'X-OOXOXX-'
p1421
I1471
sS'-OXOXXOX-'
p1422
I4019
sS'XOOOOX-XX'
p1423
I1473
sS'X--O---OX'
p1424
I2535
sS'---O-XXO-'
p1425
I1475
sS'X--O-OXX-'
p1426
I1476
sS'O--XX--O-'
p1427
I1477
sS'OXOO---XX'
p1428
I1478
sS'-XX--OO-X'
p1429
I1480
sS'-OX-O-X-X'
p1430
I1481
sS'O-XXOOXOX'
p1431
I1482
sS'-OX--XX-O'
p1432
I36
sS'X--XXO-OO'
p1433
I1484
sS'O-OOXXXX-'
p1434
I1485
sS'O--XXOXOX'
p1435
I1487
sS'-OXOXO-X-'
p1436
I60
sS'-O-O--XX-'
p1437
I4409
sS'---X-OOX-'
p1438
I1490
sS'---XX-O-O'
p1439
I146
sS'XOXOXXO-O'
p1440
I1492
sS'OX---OXXO'
p1441
I1493
sS'OXOXX-XOO'
p1442
I1494
sS'OXOO--X-X'
p1443
I1495
sS'X-X-----O'
p1444
I1496
sS'OX-OXX--O'
p1445
I1497
sS'X-O--OX-X'
p1446
I1498
sS'XOX--O-OX'
p1447
I1499
sS'--X-O-XO-'
p1448
I1500
sS'OXXOO---X'
p1449
I1501
sS'--XX--O-O'
p1450
I1502
sS'-XXOX-OOX'
p1451
I1503
sS'-O-X---X-'
p1452
I1504
sS'---XOOXXO'
p1453
I1505
sS'-X-X-OO-X'
p1454
I1506
sS'-XO-OOXX-'
p1455
I1507
sS'X-O-OXXOX'
p1456
I1508
sS'X--X--O--'
p1457
I3868
sS'--O-XO-X-'
p1458
I1509
sS'O----XXOX'
p1459
I617
sS'-XX-XOOOX'
p1460
I350
sS'XOO-OX-XX'
p1461
I1774
sS'OXX----O-'
p1462
I1513
sS'---XO--XO'
p1463
I1515
sS'-OXX-XOXO'
p1464
I1516
sS'OOX-X--XO'
p1465
I1517
sS'-XX-OXOXO'
p1466
I50
sS'X-OO-O-XX'
p1467
I1519
sS'X-XOO-XXO'
p1468
I1520
sS'--XXO-XOO'
p1469
I1521
sS'O-X--O-XX'
p1470
I1522
sS'OOX-X-OXX'
p1471
I1523
sS'X---OXXO-'
p1472
I2542
sS'X-O-----X'
p1473
I2358
sS'--OXO--XX'
p1474
I81
sS'O-X--O-X-'
p1475
I1526
sS'--XO-OXOX'
p1476
I1527
sS'OXXXOOXO-'
p1477
I1528
sS'-X-XOO--X'
p1478
I1529
sS'X-O-OXXO-'
p1479
I1532
sS'-X-X-OO--'
p1480
I1534
sS'OOX-X--X-'
p1481
I1535
sS'-XX-XOOO-'
p1482
I1536
sS'O---X-OXX'
p1483
I170
sS'----X--OX'
p1484
I1540
sS'--XXO-XO-'
p1485
I1541
sS'O-OOXXXXO'
p1486
I68
sS'-O--XO--X'
p1487
I1543
sS'X--XXO-O-'
p1488
I1544
sS'XXOOXO---'
p1489
I1545
sS'-XXOX-OO-'
p1490
I1547
sS'O-XX-OXOX'
p1491
I229
sS'--X-O-XOX'
p1492
I233
sS'OX-OXX---'
p1493
I1551
sS'OXOXX-XO-'
p1494
I1552
sS'-X-XO-OX-'
p1495
I2546
sS'--XX--O--'
p1496
I1554
sS'---X-OOXX'
p1497
I1533
sS'XO--XOX--'
p1498
I4207
sS'OX-XOX---'
p1499
I1556
sS'-X-XO-O--'
p1500
I1557
sS'---XOOXX-'
p1501
I1558
sS'-XX-O-X-O'
p1502
I4054
sS'O--X-OX--'
p1503
I1559
sS'XOO---XOX'
p1504
I3318
sS'XO-XOX---'
p1505
I1561
sS'XXOXXO-O-'
p1506
I1562
sS'--O-XXO-X'
p1507
I1563
sS'X-OO----X'
p1508
I1564
sS'O--X-XXO-'
p1509
I305
sS'--OX---X-'
p1510
I1566
sS'OXOX-X---'
p1511
I1567
sS'-X-OXXXOO'
p1512
I332
sS'X----O-OX'
p1513
I1569
sS'--OOX-XX-'
p1514
I355
sS'-XX----O-'
p1515
I360
sS'OO-X-XX--'
p1516
I1574
sS'-X-OXO---'
p1517
I1575
sS'-XO-OXXO-'
p1518
I371
sS'--XOO-X--'
p1519
I1577
sS'-OXXXOOOX'
p1520
I1681
sS'O-X--X--O'
p1521
I383
sS'XO---XXO-'
p1522
I1580
sS'OXXO---XO'
p1523
I4443
sS'XX-----OO'
p1524
I1581
sS'OXXOO--X-'
p1525
I397
sS'--XXX-OO-'
p1526
I3412
sS'XX-XO--O-'
p1527
I1583
sS'-----O-XX'
p1528
I410
sS'X---XO--O'
p1529
I1585
sS'O-OX-OX-X'
p1530
I1586
sS'O-XO----X'
p1531
I1587
sS'-XOX---OX'
p1532
I1588
sS'X--XOXOOX'
p1533
I1589
sS'XOX--X--O'
p1534
I1590
sS'O-XX-OOXX'
p1535
I1591
sS'O-X-X-O-X'
p1536
I4022
sS'OO-XXOX-X'
p1537
I1593
sS'----XO-XO'
p1538
I1594
sS'X-XXO---O'
p1539
I2053
sS'X---XOX-O'
p1540
I3324
sS'XX-----O-'
p1541
I489
sS'X-XXO-O-O'
p1542
I1598
sS'OX-XOXOOX'
p1543
I1599
sS'O-XX-OOX-'
p1544
I1600
sS'-XOX---O-'
p1545
I1601
sS'-OX-OXXXO'
p1546
I1602
sS'XX-XO--OO'
p1547
I511
sS'OO-XXOX--'
p1548
I1604
sS'XX-XXO-OO'
p1549
I533
sS'-O--X-O-X'
p1550
I1606
sS'-O-OOXXX-'
p1551
I1607
sS'OXXOO--XX'
p1552
I1608
sS'OX-O-XX--'
p1553
I3327
sS'XOXXXO--O'
p1554
I1610
sS'O-XOXO-XX'
p1555
I1611
sS'O-----XX-'
p1556
I4482
sS'-----O-X-'
p1557
I589
sS'XOO-X-XO-'
p1558
I1613
sS'O--XXO--X'
p1559
I3837
sS'XX--O-O--'
p1560
I1615
sS'--O-XOXOX'
p1561
I980
sS'-XXXXO-OO'
p1562
I1617
sS'-O-XXOXOX'
p1563
I3609
sS'XO-XOX--O'
p1564
I1619
sS'--OX---XO'
p1565
I1620
sS'--XOO-X-X'
p1566
I613
sS'O--X-XXOO'
p1567
I620
sS'XOXOO-XX-'
p1568
I624
sS'-XO-OXXOX'
p1569
I1624
sS'-X-OXO--X'
p1570
I637
sS'OX-X--X-O'
p1571
I1626
sS'--O-XXO--'
p1572
I1627
sS'XOXO---OX'
p1573
I3849
sS'--OOX-XXO'
p1574
I660
sS'O--X-OX-X'
p1575
I1630
sS'X-OOXXX-O'
p1576
I1631
sS'OXX-O-O-X'
p1577
I675
sS'X---O-X--'
p1578
I1633
sS'OXX-OXO--'
p1579
I1634
sS'O-X--X---'
p1580
I1635
sS'XO---XXOO'
p1581
I1636
sS'O-OXOXX--'
p1582
I1637
sS'X--X-OOOX'
p1583
I1638
sS'X-O-O-XOX'
p1584
I3889
sS'-XX-OOX--'
p1585
I449
sS'-X--OX--O'
p1586
I1640
sS'-OXO--XXO'
p1587
I1641
sS'-OX---OX-'
p1588
I741
sS'OX--XOX--'
p1589
I3895
sS'-XOXOO-XX'
p1590
I1643
sS'--X-OOX-X'
p1591
I1644
sS'-XXOO-OXX'
p1592
I1645
sS'-XX-O-O-X'
p1593
I1646
sS'O-X-X---O'
p1594
I1647
sS'XX-OO--OX'
p1595
I1648
sS'O-OXX--XO'
p1596
I1427
sS'-XO--XXOO'
p1597
I1652
sS'XX----O--'
p1598
I4462
sS'XX-OXO-O-'
p1599
I1653
sS'-X-O-XO--'
p1600
I1655
sS'OX-X-X-OO'
p1601
I4513
sS'-OOXXOX-X'
p1602
I2350
sS'--XOO---X'
p1603
I1657
sS'XOXOO-X--'
p1604
I1658
sS'X--O-XO--'
p1605
I4455
sS'X-XOO---X'
p1606
I1660
sS'XO--O-XX-'
p1607
I1662
sS'X-X--O-O-'
p1608
I1663
sS'----O-OXX'
p1609
I1664
sS'-XXOOX-O-'
p1610
I1666
sS'XOX----O-'
p1611
I1667
sS'X-XOX---O'
p1612
I1668
sS'OOX-OX-X-'
p1613
I4003
sS'XX-XO-OOX'
p1614
I4047
sS'-OOXX--OX'
p1615
I962
sS'XXOX-X-OO'
p1616
I1670
sS'X-OXXO-O-'
p1617
I1671
sS'X-----O-X'
p1618
I3684
sS'XX--XOO--'
p1619
I1672
sS'XOX-O----'
p1620
I1673
sS'--OXX-O--'
p1621
I3339
sS'OXXX-O-XO'
p1622
I1675
sS'--OX-XO-X'
p1623
I936
sS'--XOXX--O'
p1624
I2480
sS'XO--O-XXO'
p1625
I947
sS'--X-OX-O-'
p1626
I1679
sS'--OO-XXX-'
p1627
I1682
sS'XXOOO--X-'
p1628
I3456
sS'-X-X----O'
p1629
I1683
sS'-OO-XXX--'
p1630
I1684
sS'XOXOO-X-X'
p1631
I1685
sS'-XOX-XO-O'
p1632
I396
sS'O--XOXXO-'
p1633
I1687
sS'X-XOO----'
p1634
I1688
sS'--XOXO-OX'
p1635
I3793
sS'O--O-X--X'
p1636
I1689
sS'X-X-OOOX-'
p1637
I4050
sS'X-O-XX-O-'
p1638
I4065
sS'-XOO--X--'
p1639
I1115
sS'-X-OX-XO-'
p1640
I1892
sS'X-XOXX-OO'
p1641
I1693
sS'XO-OX--XO'
p1642
I1694
sS'OX-O-XXOX'
p1643
I1695
sS'OXX--OO-X'
p1644
I1696
sS'-X-O-XO-X'
p1645
I1697
sS'-X--OX---'
p1646
I1698
sS'-OXO--XX-'
p1647
I1699
sS'OOXX---X-'
p1648
I1700
sS'OXOX-OX-X'
p1649
I1701
sS'OOX-OXX--'
p1650
I2568
sS'X--OX-O--'
p1651
I4052
sS'O-X-X----'
p1652
I1085
sS'-XO--XXO-'
p1653
I1705
sS'O-OXOXX-X'
p1654
I1706
sS'O-OX--OXX'
p1655
I1102
sS'--X-OOX--'
p1656
I1708
sS'-XOXOO-X-'
p1657
I1709
sS'-XX-O-O--'
p1658
I1710
sS'--XOX--XO'
p1659
I1117
sS'-OXXXO-XO'
p1660
I1712
sS'-OX---OXX'
p1661
I1128
sS'-XXO--O-X'
p1662
I1714
sS'O----OXX-'
p1663
I1715
sS'-OX-XXO-O'
p1664
I1015
sS'-OXX-OX-O'
p1665
I1717
sS'XOO--X--X'
p1666
I1718
sS'-OOX--OXX'
p1667
I1188
sS'O----X-XO'
p1668
I1720
sS'X-XO-XOXO'
p1669
I1722
sS'--XOXXO--'
p1670
I1723
sS'OXX-OOXOX'
p1671
I1724
sS'--XOOXX-O'
p1672
I3346
sS'OOXXOX-X-'
p1673
I1725
sS'OX-------'
p1674
I1224
sS'-OX--X-O-'
p1675
I4381
sS'X-OX---OX'
p1676
I1727
sS'O-X--X-O-'
p1677
I1728
sS'OXXO-X---'
p1678
I1729
sS'X-XO-OOXX'
p1679
I3233
sS'XO-X---OX'
p1680
I1730
sS'XX--OO---'
p1681
I1731
sS'XX-OX-OO-'
p1682
I1804
sS'OXXO-OX-X'
p1683
I1733
sS'X-X---XOO'
p1684
I1734
sS'-XX--O---'
p1685
I1735
sS'-XXOOXX-O'
p1686
I1736
sS'OX-XO--X-'
p1687
I1298
sS'XXO-OOXX-'
p1688
I1739
sS'-XOXXO-O-'
p1689
I1740
sS'OO--XXO-X'
p1690
I1741
sS'--OXX---O'
p1691
I1324
sS'-XO--O--X'
p1692
I1333
sS'-OXOX--XO'
p1693
I1745
sS'XXOX--OOX'
p1694
I1746
sS'XXO--O-X-'
p1695
I1747
sS'OXXO-X--O'
p1696
I1749
sS'-XOXXO-OX'
p1697
I1750
sS'-O-XX-XOO'
p1698
I2368
sS'XXOX--OO-'
p1699
I1751
sS'----XOO-X'
p1700
I1395
sS'X-OX--OX-'
p1701
I1753
sS'-XX--O--O'
p1702
I1754
sS'-O----XX-'
p1703
I1755
sS'XX--OO--X'
p1704
I1756
sS'--OXX----'
p1705
I1757
sS'XO-X---O-'
p1706
I1758
sS'O-OX-XO-X'
p1707
I1759
sS'XOO--XXXO'
p1708
I1760
sS'OXXO-OX--'
p1709
I1761
sS'-OXOX--X-'
p1710
I1489
sS'XX-OX-XOO'
p1711
I1763
sS'XX-O---OX'
p1712
I1765
sS'O-OO-XXX-'
p1713
I1766
sS'-OXX-OX--'
p1714
I1768
sS'OX------X'
p1715
I1769
sS'X---X--O-'
p1716
I1770
sS'X-OX---O-'
p1717
I1771
sS'--XOXXO-O'
p1718
I1773
sS'O----X-X-'
p1719
I1512
sS'-OX--OOXX'
p1720
I1775
sS'-XX--O-XO'
p1721
I4376
sS'---O-O-XX'
p1722
I1776
sS'XO-------'
p1723
I1811
sS'XOO--X---'
p1724
I1778
sS'O--XX----'
p1725
I1779
sS'-XXXOO---'
p1726
I1780
sS'X-X--O-XO'
p1727
I3358
sS'X-OXX-OXO'
p1728
I2583
sS'X---X-OXO'
p1729
I1786
sS'XXO---O--'
p1730
I1787
sS'-O-OXX--X'
p1731
I1788
sS'--XXOOXOX'
p1732
I1789
sS'OX-O--XOX'
p1733
I1790
sS'XXOOO-XX-'
p1734
I4385
sS'XOX-X--O-'
p1735
I2586
sS'----XXO--'
p1736
I1792
sS'O--X---XO'
p1737
I4067
sS'X-X---OOX'
p1738
I1794
sS'-O-OXOX-X'
p1739
I1795
sS'XO-OXXX-O'
p1740
I1796
sS'---O-XXXO'
p1741
I1677
sS'X--O-O-XX'
p1742
I1798
sS'X-X-OX-OO'
p1743
I1799
sS'-X--OXOOX'
p1744
I1800
sS'-OX-X-OX-'
p1745
I1055
sS'OX--X-X-O'
p1746
I1803
sS'OX-XXOO--'
p1747
I3814
sS'XO--OOXX-'
p1748
I1732
sS'XOOOXXXO-'
p1749
I1805
sS'O-O--XX-X'
p1750
I124
sS'XX--OOOXX'
p1751
I1807
sS'-O-XX-X-O'
p1752
I599
sS'X-O-X----'
p1753
I4071
sS'---X--XOO'
p1754
I2856
sS'---XOXOX-'
p1755
I1777
sS'-OX-O---X'
p1756
I1812
sS'O-O--XX--'
p1757
I1813
sS'-O--XXXO-'
p1758
I3763
sS'OX--O--X-'
p1759
I1815
sS'--OO--XX-'
p1760
I1816
sS'X-X-OX-O-'
p1761
I1817
sS'-OX-X-OXO'
p1762
I1818
sS'XO------X'
p1763
I1819
sS'XX-O---O-'
p1764
I1820
sS'XX--OOOX-'
p1765
I1821
sS'-XX--OOOX'
p1766
I1822
sS'XXOX-O-O-'
p1767
I1824
sS'XX-XOXOO-'
p1768
I1825
sS'X--O-O-X-'
p1769
I1826
sS'XXO-X---O'
p1770
I1827
sS'---X--XO-'
p1771
I1828
sS'---XOXOXO'
p1772
I1829
sS'XOXO--XOX'
p1773
I1830
sS'XOO-XX-O-'
p1774
I2594
sS'X-X-OOOXX'
p1775
I4075
sS'O--XX---O'
p1776
I1833
sS'-XXXOO--O'
p1777
I710
sS'--XXOOXO-'
p1778
I1835
sS'OO-X-OX-X'
p1779
I1836
sS'X-X---OO-'
p1780
I1837
sS'-----OX-X'
p1781
I1838
sS'XO-XO---X'
p1782
I3040
sS'X-X--X-OO'
p1783
I1839
sS'-X-XOXO-O'
p1784
I2596
sS'-O-OXX---'
p1785
I1842
sS'XXO---O-X'
p1786
I1843
sS'-OX-OX---'
p1787
I4180
sS'-O-OX---X'
p1788
I1845
sS'OX-XOOX--'
p1789
I2597
sS'---OXOOXX'
p1790
I983
sS'XOXO--OXX'
p1791
I1850
sS'X-O-OXX-O'
p1792
I1851
sS'-OOXX-X--'
p1793
I1853
sS'O-OX-X---'
p1794
I272
sS'OO--XX-X-'
p1795
I1855
sS'XXOOOXX--'
p1796
I1856
sS'XOX-XO--O'
p1797
I1857
sS'OXOX-XO--'
p1798
I2634
sS'-O---XOX-'
p1799
I3876
sS'---X--OOX'
p1800
I1858
sS'OX---XO-X'
p1801
I1859
sS'X--OX--XO'
p1802
I1860
sS'XOX-OXOXO'
p1803
I3196
sS'-X-XX-O-O'
p1804
I1861
sS'OX-XX-XOO'
p1805
I1862
sS'OO-XXO-X-'
p1806
I1863
sS'-OX--XOXO'
p1807
I3622
sS'XX-XO---O'
p1808
I1864
sS'--X-O--X-'
p1809
I1167
sS'O-XO-O-XX'
p1810
I1866
sS'XOXXXOOO-'
p1811
I1867
sS'XO-XXO---'
p1812
I4082
sS'OO-X-XO-X'
p1813
I4412
sS'OXO---XOX'
p1814
I1868
sS'O-O-XXXXO'
p1815
I494
sS'---OX----'
p1816
I2128
sS'-O-OXOXX-'
p1817
I1871
sS'OX-O-X-X-'
p1818
I1064
sS'OXO-X---X'
p1819
I1874
sS'XOXO-----'
p1820
I3595
sS'OXOOXXX-O'
p1821
I3372
sS'-OXXXO---'
p1822
I1721
sS'X-O--O--X'
p1823
I1877
sS'X--OOX-OX'
p1824
I1878
sS'O-X-O--X-'
p1825
I1879
sS'XOO-O-X-X'
p1826
I1880
sS'--OO-XX-X'
p1827
I1881
sS'XO---X-O-'
p1828
I1882
sS'-OX-O--XX'
p1829
I1883
sS'--OOXXX-O'
p1830
I1884
sS'O-X-OX---'
p1831
I1886
sS'O-X-O--XX'
p1832
I1887
sS'-X--X-O--'
p1833
I1888
sS'XX-O--O--'
p1834
I1889
sS'OO--X-XX-'
p1835
I519
sS'OXX-X-O-O'
p1836
I1891
sS'-OX-O--X-'
p1837
I1893
sS'XO---X-OX'
p1838
I1894
sS'O-XX-OX-O'
p1839
I1895
sS'---OX---X'
p1840
I714
sS'XOX-OO--X'
p1841
I1834
sS'XOXOX--XO'
p1842
I1898
sS'OXO-X----'
p1843
I1899
sS'--OOXXX--'
p1844
I1900
sS'OX---XO--'
p1845
I1901
sS'OOX-X-O-X'
p1846
I2357
sS'OO-X-X-X-'
p1847
I1904
sS'-XOXOXX-O'
p1848
I1905
sS'-OOXX-X-O'
p1849
I1906
sS'X-O-OXX--'
p1850
I1907
sS'XXOOOXX-O'
p1851
I1908
sS'XOX-XO---'
p1852
I1909
sS'OO-XXO-XX'
p1853
I1910
sS'OO--XX-XO'
p1854
I3494
sS'O----XX--'
p1855
I1912
sS'OX-OXOXOX'
p1856
I1913
sS'O-XXXOO-X'
p1857
I1914
sS'OXOXX-X-O'
p1858
I1915
sS'O-OX-X--X'
p1859
I2130
sS'-X-X--OXO'
p1860
I2608
sS'-X----X-O'
p1861
I1918
sS'XOXO--OX-'
p1862
I1919
sS'X-OO--XX-'
p1863
I3117
sS'--OOOX-XX'
p1864
I1920
sS'O-OXXOOXX'
p1865
I1921
sS'---OOXX--'
p1866
I1922
sS'O-XX---OX'
p1867
I1923
sS'O-OX--X--'
p1868
I1924
sS'XXO---XOO'
p1869
I2609
sS'XOX--X-OO'
p1870
I1926
sS'--XOOX-XO'
p1871
I1927
sS'X--OXXO-O'
p1872
I1928
sS'---OXXO--'
p1873
I4496
sS'-X--O-XXO'
p1874
I1929
sS'OO-XXOXOX'
p1875
I1930
sS'X-O-XXO--'
p1876
I2610
sS'--OX---OX'
p1877
I1932
sS'OXXX-OO-X'
p1878
I1933
sS'XXO--XOO-'
p1879
I1935
sS'XXO-XO-O-'
p1880
I1936
sS'X--OO--X-'
p1881
I1937
sS'O-XX--XO-'
p1882
I1491
sS'XO-X-XO--'
p1883
I1940
sS'OX-OX-X--'
p1884
I1941
sS'--O-XOX--'
p1885
I1942
sS'--XOX--O-'
p1886
I3383
sS'--XXXOO--'
p1887
I976
sS'OOXXO---X'
p1888
I1947
sS'OO-X-XXO-'
p1889
I1948
sS'--OOXX-X-'
p1890
I4235
sS'-X-X---O-'
p1891
I1950
sS'O-X-XX--O'
p1892
I4401
sS'X-XO-O-OX'
p1893
I1951
sS'-X-XO-O-X'
p1894
I4404
sS'O-X-O-X--'
p1895
I3433
sS'X-OOXXXO-'
p1896
I1953
sS'---X-OXOX'
p1897
I1954
sS'X----XOO-'
p1898
I1955
sS'-XXXO--OO'
p1899
I1956
sS'OXO-XX-O-'
p1900
I1576
sS'-X-XOXO--'
p1901
I1958
sS'OX-OX-X-O'
p1902
I1960
sS'OO-X-XXOX'
p1903
I1961
sS'XO-X-XO-O'
p1904
I1962
sS'--XXXOO-O'
p1905
I1847
sS'X----XOOX'
p1906
I1965
sS'-O-OOX-XX'
p1907
I4467
sS'O--OXXX-O'
p1908
I724
sS'-O-O-XXXO'
p1909
I1969
sS'-O---XXXO'
p1910
I1021
sS'X--OO--XX'
p1911
I1971
sS'XX-O-O--X'
p1912
I2618
sS'OOXX-OXX-'
p1913
I4178
sS'-XXXO--O-'
p1914
I1973
sS'X--XOOOXX'
p1915
I1974
sS'--O-XXOOX'
p1916
I1976
sS'-OX-OXX--'
p1917
I1977
sS'-OXOXO-XX'
p1918
I1978
sS'-XO----OX'
p1919
I1979
sS'XX--X-O-O'
p1920
I1980
sS'--XOOX-X-'
p1921
I1981
sS'XXO--XOOX'
p1922
I1982
sS'XOX--X-O-'
p1923
I1983
sS'X--OXXO--'
p1924
I1984
sS'X--O--O-X'
p1925
I1985
sS'O-XX---O-'
p1926
I1988
sS'---OOXX-X'
p1927
I1989
sS'XO-XOX-XO'
p1928
I1990
sS'-XXO-OX-O'
p1929
I1650
sS'OX----XXO'
p1930
I1992
sS'X-OX-X-O-'
p1931
I4101
sS'XOOOXX-X-'
p1932
I1994
sS'X-X-OOO-X'
p1933
I1995
sS'---OO-X-X'
p1934
I1996
sS'--X-OX--O'
p1935
I1997
sS'O--XXOO-X'
p1936
I1998
sS'O-XX--XOO'
p1937
I2652
sS'X---O-OXX'
p1938
I1999
sS'XO-XXOOXO'
p1939
I2000
sS'X--OX----'
p1940
I2001
sS'--OX-X---'
p1941
I797
sS'X---OOOXX'
p1942
I4027
sS'-XOX---XO'
p1943
I4394
sS'OX-XO-XO-'
p1944
I2003
sS'--O---XOX'
p1945
I2004
sS'OO-X-X-XO'
p1946
I1849
sS'X-XOO--XO'
p1947
I3067
sS'-OO-XXX-O'
p1948
I2006
sS'OXX-----O'
p1949
I2007
sS'X---OXO-X'
p1950
I2008
sS'O-OXOX-XX'
p1951
I2009
sS'O------X-'
p1952
I2010
sS'O-X----X-'
p1953
I3454
sS'-OX-OO-XX'
p1954
I2011
sS'XX-XOOOX-'
p1955
I2012
sS'X-OOXO-X-'
p1956
I2013
sS'O-X-----X'
p1957
I1616
sS'X-XXXO-OO'
p1958
I2015
sS'--XX-OO-X'
p1959
I2016
sS'OO-XOX-XX'
p1960
I2017
sS'-O--XOXXO'
p1961
I2018
sS'XX-OXO---'
p1962
I2019
sS'X-OO-XXXO'
p1963
I2624
sS'-OOXX-XXO'
p1964
I2021
sS'----OOX-X'
p1965
I2022
sS'X-X-O--O-'
p1966
I3393
sS'-XX-OOX-O'
p1967
I2024
sS'OXX------'
p1968
I2025
sS'XOO-OXXXO'
p1969
I779
sS'OO-XOX-X-'
p1970
I2026
sS'X---X-O-O'
p1971
I2027
sS'XXO-XOXO-'
p1972
I1854
sS'XX-XOOOXO'
p1973
I2029
sS'OXOX---OX'
p1974
I2030
sS'-O--XOX-X'
p1975
I2225
sS'-XOO-X--X'
p1976
I4105
sS'O------XX'
p1977
I2315
sS'O-OXOX-X-'
p1978
I295
sS'OXOXXOX--'
p1979
I2034
sS'OOX-XX---'
p1980
I2035
sS'-OXO---X-'
p1981
I1216
sS'OX-XOO-X-'
p1982
I2038
sS'--XX-OO--'
p1983
I2039
sS'-OXX--OXO'
p1984
I4476
sS'OXOXXO-OX'
p1985
I2041
sS'O-X------'
p1986
I2043
sS'O-X-X--OX'
p1987
I2044
sS'-XXO-OX--'
p1988
I507
sS'OX-XOOXOX'
p1989
I2047
sS'X---O-OX-'
p1990
I2048
sS'-XX-OO-XO'
p1991
I2049
sS'XOOOXX-XO'
p1992
I2050
sS'-OOOX--XX'
p1993
I2051
sS'XX-X-OOOX'
p1994
I2052
sS'--O-XXX-O'
p1995
I1083
sS'--X-OX---'
p1996
I2054
sS'O----XX-O'
p1997
I2055
sS'OX-XO-XOX'
p1998
I2056
sS'XO-OXO-X-'
p1999
I2057
sS'OOXX-X-O-'
p2000
I2058
sS'--OX-X--O'
p2001
I451
sS'O--X-XOX-'
p2002
I1806
sS'XO-XXOOX-'
p2003
I2060
sS'X-OX-X-OO'
p2004
I4147
sS'XOX-OOX-X'
p2005
I2632
sS'OXXO---OX'
p2006
I4111
sS'X-OX-----'
p2007
I2063
sS'OOXOXO-XX'
p2008
I2064
sS'XX--OXO-O'
p2009
I2065
sS'O--X--X--'
p2010
I2066
sS'X-X-O--OX'
p2011
I3403
sS'XXOX-OO--'
p2012
I4112
sS'-XXO-XOXO'
p2013
I2070
sS'-X-O-OX--'
p2014
I2071
sS'OX--XX-OO'
p2015
I2072
sS'-XX-XOO-O'
p2016
I2074
sS'O-XOX--OX'
p2017
I2075
sS'OOX--O-XX'
p2018
I2579
sS'--X--OXOX'
p2019
I2077
sS'XO-X-OO-X'
p2020
I2078
sS'XOXO-O-XX'
p2021
I2080
sS'--OOXOXX-'
p2022
I2081
sS'X-X-XOOO-'
p2023
I2082
sS'--X-O--OX'
p2024
I2083
sS'--X---XO-'
p2025
I2084
sS'X-XXXOO-O'
p2026
I2085
sS'X--X-O-XO'
p2027
I2086
sS'O--X-XO-X'
p2028
I319
sS'-XO-OO-XX'
p2029
I3983
sS'XO-O-X-XO'
p2030
I2090
sS'XX----XOO'
p2031
I2566
sS'X-XO-OX--'
p2032
I2091
sS'-XXXOO-OX'
p2033
I2092
sS'XXOOOX-X-'
p2034
I3407
sS'OX---OX-X'
p2035
I2095
sS'X-XOXOOX-'
p2036
I2096
sS'XX--OX-O-'
p2037
I2097
sS'-XXOXOO--'
p2038
I4238
sS'---OXX-OX'
p2039
I2098
sS'XOO--XXO-'
p2040
I196
sS'O-XXX-OO-'
p2041
I2100
sS'O----X-OX'
p2042
I2101
sS'--X---XOO'
p2043
I2102
sS'XOXOXX--O'
p2044
I1865
sS'---OXX-O-'
p2045
I1445
sS'OX-X---XO'
p2046
I2105
sS'XXO----O-'
p2047
I2641
sS'--XOOXXXO'
p2048
I253
sS'XX------O'
p2049
I1007
sS'XO-XX---O'
p2050
I2642
sS'O-XXX-OOX'
p2051
I2110
sS'-X-O-----'
p2052
I2111
sS'X-XO-OX-O'
p2053
I2112
sS'-XOOXX---'
p2054
I2113
sS'-X-XX-OO-'
p2055
I4276
sS'-XXO--XO-'
p2056
I2114
sS'X-XOXOOXO'
p2057
I2115
sS'XX--OX-OO'
p2058
I2116
sS'-XOO-XXXO'
p2059
I2117
sS'-XXXOO-O-'
p2060
I2118
sS'O--X-XO--'
p2061
I2119
sS'OO--X-XXO'
p2062
I2120
sS'-X---O-OX'
p2063
I2121
sS'XX--OXO--'
p2064
I2122
sS'X-OX----O'
p2065
I2123
sS'XO-O-XXXO'
p2066
I1869
sS'O--X--X-O'
p2067
I2125
sS'XOXO-O-X-'
p2068
I2126
sS'X--XXOOXO'
p2069
I2127
sS'OX--XX-O-'
p2070
I2129
sS'X--OXOX--'
p2071
I2645
sS'X-OO--OXX'
p2072
I2131
sS'-XX-XOO--'
p2073
I2132
sS'OX--XO---'
p2074
I3508
sS'OOXX-OOXX'
p2075
I2133
sS'-XOXX-XOO'
p2076
I2134
sS'-XOO--OXX'
p2077
I2135
sS'XXO-OOXOX'
p2078
I2136
sS'X-X---OXO'
p2079
I2137
sS'X-OXOX-OX'
p2080
I2140
sS'OXX-X-O--'
p2081
I1873
sS'OX--X-XOO'
p2082
I2141
sS'OX-XXOXO-'
p2083
I2142
sS'XO--XX-O-'
p2084
I2143
sS'--OXOO-XX'
p2085
I4010
sS'-OX-XXOO-'
p2086
I1963
sS'XOXOXO-X-'
p2087
I2145
sS'OXX---OX-'
p2088
I2146
sS'OXOXOX-OX'
p2089
I4509
sS'-O-XOXO-X'
p2090
I1168
sS'---XOXO--'
p2091
I55
sS'OOXO-XX--'
p2092
I2149
sS'X--OOX-XO'
p2093
I2150
sS'XXO--OXO-'
p2094
I2152
sS'OX-XOX-OX'
p2095
I3377
sS'-O-X-OXXO'
p2096
I3755
sS'XO---O--X'
p2097
I2155
sS'XX-OO-XXO'
p2098
I2156
sS'XO-X-OOX-'
p2099
I2157
sS'-OXXX--OO'
p2100
I2158
sS'-OXXOXOXO'
p2101
I2159
sS'X-OXX--O-'
p2102
I2160
sS'--XOOX---'
p2103
I2162
sS'O-XO---XX'
p2104
I2163
sS'X-O--OXX-'
p2105
I2164
sS'XX-O--O-X'
p2106
I1876
sS'XX-OOXOOX'
p2107
I2166
sS'X--OXOOX-'
p2108
I2653
sS'O-OXX-XO-'
p2109
I1217
sS'X----O---'
p2110
I2169
sS'O-XX-X--O'
p2111
I2170
sS'-OXXOXOX-'
p2112
I2172
sS'-XOOX--OX'
p2113
I1651
sS'X-XXO-OO-'
p2114
I3192
sS'XO-O--X--'
p2115
I1020
sS'XOXXOO--X'
p2116
I2655
sS'O-XXOO--X'
p2117
I321
sS'-O--OXXXO'
p2118
I3353
sS'O-OXX-XOX'
p2119
I2177
sS'XXOOX-O--'
p2120
I2178
sS'-XO-XOXOX'
p2121
I4125
sS'XO-X-OOXX'
p2122
I2180
sS'O-XX-OO-X'
p2123
I4126
sS'XOX-O-OXX'
p2124
I3422
sS'OX-XXO--O'
p2125
I2183
sS'------XXO'
p2126
I2184
sS'OO-XX-XXO'
p2127
I2185
sS'O-XO---X-'
p2128
I2186
sS'-OOO-XX-X'
p2129
I2161
sS'OXXOOXX--'
p2130
I2188
sS'OO--XXXXO'
p2131
I2190
sS'--O-X-O-X'
p2132
I739
sS'XO--XX-OO'
p2133
I2192
sS'XXO-OX-O-'
p2134
I3616
sS'OX--X-XO-'
p2135
I2193
sS'X--O-OXOX'
p2136
I1119
sS'XXO--OXOX'
p2137
I2195
sS'XOXOXO-XO'
p2138
I2196
sS'OXXOOX---'
p2139
I2197
sS'XOO-X-OX-'
p2140
I4477
sS'XO-----XO'
p2141
I2198
sS'XO--X--O-'
p2142
I2199
sS'OX-XX--O-'
p2143
I1592
sS'X-OXOX-O-'
p2144
I2201
sS'OX--OOX-X'
p2145
I2202
sS'-X-OOXXOX'
p2146
I2203
sS'-X-O-O-X-'
p2147
I2204
sS'OXOOXXX--'
p2148
I3425
sS'X---O-XXO'
p2149
I2605
sS'-OXXOO-XX'
p2150
I1810
sS'--OX-XOOX'
p2151
I671
sS'O--OXOX-X'
p2152
I2801
sS'XO-X-XOOX'
p2153
I2210
sS'--X-O--XO'
p2154
I2211
sS'OXX--XXOO'
p2155
I2212
sS'XO-O--XX-'
p2156
I2213
sS'-XX-O-XOO'
p2157
I4374
sS'-OXXXO--O'
p2158
I2214
sS'OXO--X-XO'
p2159
I2215
sS'-XOOOXXX-'
p2160
I2216
sS'X-O-OX-X-'
p2161
I2217
sS'OXX--O---'
p2162
I2218
sS'---OX-X-O'
p2163
I2219
sS'XXOOXOXO-'
p2164
I2664
sS'XOOX-XOXO'
p2165
I2221
sS'-XOX-XXOO'
p2166
I2222
sS'XOOX--OX-'
p2167
I2665
sS'XOXO-OXX-'
p2168
I2224
sS'XX-XOOOOX'
p2169
I2226
sS'-X--OXOX-'
p2170
I2227
sS'X-O--XOXO'
p2171
I4449
sS'XOX---XO-'
p2172
I2229
sS'X-XOO-OX-'
p2173
I2231
sS'--XXO-O--'
p2174
I2232
sS'--OXOXX-O'
p2175
I1903
sS'XXO--OOXX'
p2176
I2234
sS'--X-XO--O'
p2177
I2235
sS'--XOX-OXO'
p2178
I2236
sS'--XO-XOXO'
p2179
I2067
sS'X-XO-XXOO'
p2180
I2238
sS'O-XXOX-O-'
p2181
I2239
sS'XXO--OOX-'
p2182
I2240
sS'X-XOO-OXX'
p2183
I2241
sS'XOXO-OXXO'
p2184
I2242
sS'--XOOXXO-'
p2185
I2243
sS'-X--OXOXO'
p2186
I2244
sS'O-XXO----'
p2187
I2245
sS'-X-XOOO-X'
p2188
I2246
sS'X-XOX-OXO'
p2189
I2247
sS'OXX--OOXX'
p2190
I2248
sS'XOX---XOO'
p2191
I2249
sS'X--X----O'
p2192
I2250
sS'--OXOXX--'
p2193
I2251
sS'X-X--O-OX'
p2194
I1686
sS'XO--X-OX-'
p2195
I2253
sS'-X-XXOOOX'
p2196
I3695
sS'XOOX-OOXX'
p2197
I2255
sS'--XO-XOX-'
p2198
I2256
sS'---OX--XO'
p2199
I1952
sS'--XOX-OX-'
p2200
I314
sS'----OXXXO'
p2201
I2259
sS'--X-XX-OO'
p2202
I2260
sS'-O-XX-OOX'
p2203
I2261
sS'X-OOX-X--'
p2204
I4138
sS'-X-X---OO'
p2205
I1966
sS'---X--O-X'
p2206
I2264
sS'OXO-OX-X-'
p2207
I3815
sS'OO--OXX-X'
p2208
I893
sS'OXX--O--X'
p2209
I2267
sS'--OXOXXXO'
p2210
I2268
sS'XO-O--XXO'
p2211
I2269
sS'OXXXO-O--'
p2212
I1897
sS'XX-O-XOO-'
p2213
I2270
sS'-XOOOXXXO'
p2214
I2272
sS'X-O-OX-XO'
p2215
I2273
sS'XOOX-XOX-'
p2216
I2274
sS'-OXO-XXXO'
p2217
I2275
sS'XO-X-XOO-'
p2218
I2276
sS'O---X-O-X'
p2219
I2277
sS'OO-O-XX-X'
p2220
I4
sS'-O---XO-X'
p2221
I8
sS'O---X-XXO'
p2222
I2280
sS'OX--O-XX-'
p2223
I2281
sS'-XX-OOOX-'
p2224
I27
sS'-O--OX-X-'
p2225
I2283
sS'OX-O---XX'
p2226
I80
sS'XXOO--OXX'
p2227
I37
sS'OX-OX---X'
p2228
I2286
sS'O--X---OX'
p2229
I1896
sS'O-OO-XX-X'
p2230
I48
sS'-OOX-XX-O'
p2231
I193
sS'X-OX-OO-X'
p2232
I2289
sS'X---OX--O'
p2233
I2290
sS'X-X-OO-OX'
p2234
I2291
sS'X---X-XOO'
p2235
I2292
sS'-O-XO--X-'
p2236
I2293
sS'X-XX--O-O'
p2237
I2294
sS'X--O--OX-'
p2238
I2295
sS'-XXOO----'
p2239
I2552
sS'--X---OOX'
p2240
I2296
sS'OO---XXOX'
p2241
I2297
sS'--O-X-OXX'
p2242
I2298
sS'X-O-XXOO-'
p2243
I142
sS'OXXOX----'
p2244
I2300
sS'---XXOO-X'
p2245
I385
sS'O-OX-XXXO'
p2246
I2302
sS'O-X-O-X-X'
p2247
I2303
sS'X-OOO-XX-'
p2248
I4143
sS'--XO----X'
p2249
I2307
sS'O-XXO-XOX'
p2250
I2308
sS'OOXXX-OX-'
p2251
I191
sS'XX-O-OX-O'
p2252
I3439
sS'O-XXOO-X-'
p2253
I2311
sS'X-X--OX-O'
p2254
I2312
sS'----O-XXO'
p2255
I2313
sS'-O----X-X'
p2256
I2316
sS'O-O-X--X-'
p2257
I2109
sS'-O-OX-XOX'
p2258
I223
sS'O-XXO-XO-'
p2259
I2319
sS'-OOXXOXX-'
p2260
I2320
sS'O-X-O-XX-'
p2261
I2073
sS'-X-XXOXOO'
p2262
I2323
sS'--XO-----'
p2263
I2324
sS'-XOX-OX--'
p2264
I2325
sS'XO-O---XX'
p2265
I260
sS'XOXXO--XO'
p2266
I4146
sS'X--XXO--O'
p2267
I3426
sS'---OOXXOX'
p2268
I2328
sS'--O-X-OX-'
p2269
I282
sS'O-OX-XXO-'
p2270
I2924
sS'OOXXX-OXO'
p2271
I2331
sS'-OX-OX-X-'
p2272
I3599
sS'-XXO-O-XO'
p2273
I3657
sS'----O-XX-'
p2274
I298
sS'--XXO--OX'
p2275
I2333
sS'O-XO--X--'
p2276
I2334
sS'OX-XXOX-O'
p2277
I2684
sS'X-O--XX-O'
p2278
I1943
sS'-X-O-OXOX'
p2279
I2337
sS'-XX-O-OXO'
p2280
I2685
sS'XXO-OX---'
p2281
I2338
sS'XO-X-----'
p2282
I2339
sS'-X-X--XOO'
p2283
I2340
sS'--O-O--XX'
p2284
I2341
sS'X--O--OXX'
p2285
I2342
sS'-OOX-XX--'
p2286
I2343
sS'----OO-XX'
p2287
I2344
sS'XXOX----O'
p2288
I2687
sS'X---OX---'
p2289
I2346
sS'-XX-OOOXX'
p2290
I2347
sS'OX----OX-'
p2291
I3920
sS'O--X--OX-'
p2292
I2348
sS'XO--XXOXO'
p2293
I2349
sS'OXOOXX-OX'
p2294
I1140
sS'--X--XOO-'
p2295
I2351
sS'-XO-OX-OX'
p2296
I2352
sS'OX-O---X-'
p2297
I2353
sS'-O--OX-XX'
p2298
I2354
sS'OX-OX----'
p2299
I412
sS'OO-XO-XX-'
p2300
I658
sS'O-OXX----'
p2301
I389
sS'X-XXOO-OX'
p2302
I2359
sS'OXXO-OXX-'
p2303
I2360
sS'XO-OXXXOO'
p2304
I2361
sS'XX--O-OXO'
p2305
I2593
sS'X-O-X-OX-'
p2306
I2362
sS'--O-XXXOO'
p2307
I2363
sS'O--XX-OOX'
p2308
I2364
sS'-XO-X-X-O'
p2309
I2366
sS'-X---OOX-'
p2310
I2367
sS'O-O--XXOX'
p2311
I353
sS'--O-XX--O'
p2312
I3961
sS'-XOX--OX-'
p2313
I2369
sS'X-OX-XOXO'
p2314
I2370
sS'-X-X-O-OX'
p2315
I3445
sS'O-O-XOXX-'
p2316
I2371
sS'X-O-O--XX'
p2317
I2373
sS'-OXX-XO--'
p2318
I2374
sS'-XX-OO---'
p2319
I2375
sS'X-OOX-XXO'
p2320
I4156
sS'--X-O-OX-'
p2321
I2377
sS'-XX-X--OO'
p2322
I2378
sS'-XOOO--XX'
p2323
I2379
sS'-X-X--OO-'
p2324
I550
sS'XO---O-X-'
p2325
I2381
sS'---OXOXOX'
p2326
I1223
sS'-XX----OO'
p2327
I2384
sS'OOX----X-'
p2328
I2385
sS'-X-XOXXOO'
p2329
I2386
sS'-X--O---X'
p2330
I2387
sS'-OO-X-OXX'
p2331
I2388
sS'-----XOX-'
p2332
I2389
sS'--O-OXX--'
p2333
I2390
sS'--X-XXO-O'
p2334
I3449
sS'--XO--X-O'
p2335
I2392
sS'X--XXOOO-'
p2336
I2393
sS'--XXOOX--'
p2337
I2394
sS'X--OO-X--'
p2338
I3450
sS'--X-OXO--'
p2339
I2396
sS'-X--O----'
p2340
I2397
sS'OO-OXXXXO'
p2341
I3855
sS'-XO--OOXX'
p2342
I4160
sS'XX---O-XO'
p2343
I1707
sS'--O-OXX-X'
p2344
I2400
sS'-----XOXO'
p2345
I2401
sS'OXXXX--OO'
p2346
I2402
sS'O-O-X--XX'
p2347
I2329
sS'OOX----XX'
p2348
I2404
sS'-X-X--OOX'
p2349
I734
sS'--XO--X--'
p2350
I2406
sS'XO---O-XX'
p2351
I2407
sS'--XO-X-O-'
p2352
I2408
sS'XO-OXXXO-'
p2353
I2409
sS'-X---OOXX'
p2354
I2410
sS'--X-X-O--'
p2355
I767
sS'O--OX-XOX'
p2356
I2412
sS'X-O-X-OXO'
p2357
I2414
sS'-XX-OO--X'
p2358
I2416
sS'X-O-O--X-'
p2359
I2417
sS'X-XXOO-O-'
p2360
I2418
sS'-O-XX-XO-'
p2361
I195
sS'O-OXX---X'
p2362
I826
sS'-X-O--XXO'
p2363
I2422
sS'--O--OXX-'
p2364
I2423
sS'-XOXO-XOX'
p2365
I4206
sS'O---OXXOX'
p2366
I2424
sS'XOXX-O-XO'
p2367
I2425
sS'-OXX-XO-O'
p2368
I1772
sS'-X-XO--OX'
p2369
I1511
sS'O-O-OXXX-'
p2370
I2429
sS'XOXOOX-XO'
p2371
I2430
sS'XOXOXX-OO'
p2372
I2431
sS'-X-XOX-O-'
p2373
I56
sS'OXO-X--OX'
p2374
I2433
sS'X-X-OXO--'
p2375
I2434
sS'OO-X-X--X'
p2376
I14
sS'X-XOOXO--'
p2377
I2474
sS'XX--OOX--'
p2378
I2436
sS'OO-X-XXXO'
p2379
I2437
sS'-X-O---OX'
p2380
I913
sS'O-OX--X-X'
p2381
I916
sS'O-OXX-OXX'
p2382
I2440
sS'-XX-O-OX-'
p2383
I2702
sS'X-XXXOOO-'
p2384
I2442
sS'-X-XOXOOX'
p2385
I4165
sS'-OO-OXXX-'
p2386
I2444
sS'-XOOXX-OX'
p2387
I2446
sS'O---XXXOO'
p2388
I3882
sS'--XOXO---'
p2389
I2447
sS'-XOXX-OO-'
p2390
I4427
sS'--XO-O--X'
p2391
I1394
sS'XXO--O-OX'
p2392
I3460
sS'OX-OXOX-X'
p2393
I4245
sS'OXO-X-X-O'
p2394
I2450
sS'-XOXOXXO-'
p2395
I987
sS'X-XXOOO--'
p2396
I2452
sS'--OXXOXO-'
p2397
I2453
sS'-X----XO-'
p2398
I2454
sS'-O--OXX-X'
p2399
I2455
sS'-X--OX-XO'
p2400
I2456
sS'XOOXOX---'
p2401
I2457
sS'OXO--XXO-'
p2402
I2458
sS'OO--XXXO-'
p2403
I2459
sS'XO-X-O--X'
p2404
I2460
sS'--X-OO-XX'
p2405
I4137
sS'XO-OOX-X-'
p2406
I2461
sS'OOXOXX---'
p2407
I2462
sS'XOO-XOX--'
p2408
I2463
sS'OO--XXXOX'
p2409
I2464
sS'XO-X-O---'
p2410
I2466
sS'--X----XO'
p2411
I1784
sS'--OX-O-XX'
p2412
I2468
sS'XOOXOX--X'
p2413
I2469
sS'OOXOX--X-'
p2414
I2707
sS'OXO-X-X--'
p2415
I2470
sS'-X-OX-OOX'
p2416
I1104
sS'-XOXOXXOO'
p2417
I1107
sS'XX---XO-O'
p2418
I2473
sS'-OO-XOXX-'
p2419
I839
sS'-X----XOO'
p2420
I2475
sS'XO--O--XX'
p2421
I2708
sS'XOO-XXX-O'
p2422
I2477
sS'--XOXO--X'
p2423
I2478
sS'OOX--XXXO'
p2424
I2479
sS'O-O-X-OXX'
p2425
I1840
sS'X-XXOOO-X'
p2426
I2481
sS'OXXXOO-X-'
p2427
I2709
sS'XX--OXXOO'
p2428
I2483
sS'OXXOO-XOX'
p2429
I3466
sS'---OXXXOO'
p2430
I2486
sS'O-OXX-OX-'
p2431
I1182
sS'XOXOXX-O-'
p2432
I1186
sS'-X-XOX-OO'
p2433
I297
sS'O---XO-X-'
p2434
I621
sS'-OO-XOX-X'
p2435
I1197
sS'X-X-OXO-O'
p2436
I2492
sS'-----OOXX'
p2437
I2493
sS'-XOOXX-O-'
p2438
I2494
sS'OX---OXOX'
p2439
I1219
sS'O-OX-O-XX'
p2440
I688
sS'X-XOOXOXO'
p2441
I2498
sS'X--O-O--X'
p2442
I2712
sS'XO---XO--'
p2443
I2500
sS'-----XX-O'
p2444
I1246
sS'---O--X-X'
p2445
I2503
sS'OO-X-X---'
p2446
I1797
sS'X-OOXOX--'
p2447
I2505
sS'XX---OOXO'
p2448
I2714
sS'--OX--OX-'
p2449
I2093
sS'-XXOOX-XO'
p2450
I2715
sS'X-------O'
p2451
I2509
sS'OXXX-OOXO'
p2452
I2510
sS'O-X-OX-X-'
p2453
I2511
sS'X----O-X-'
p2454
I2512
sS'X-XO-O--X'
p2455
I2513
sS'O-X-XOOX-'
p2456
I4253
sS'XX-O--X-O'
p2457
I4292
sS'XOOX--OXX'
p2458
I2716
sS'OOXX-O-XX'
p2459
I2515
sS'OX--O-XOX'
p2460
I3968
sS'OX-O-OXX-'
p2461
I2516
sS'-O-X--X--'
p2462
I2517
sS'--O-XOOXX'
p2463
I2564
sS'--OO-XOXX'
p2464
I2519
sS'XXOXOX--O'
p2465
I2520
sS'XXOO--XO-'
p2466
I3355
sS'OX--X-O-X'
p2467
I3899
sS'--XXOX-O-'
p2468
I2522
sS'O-XOOXXX-'
p2469
I2523
sS'X---OXXOO'
p2470
I2524
sS'XX--X--OO'
p2471
I2525
sS'OO-XX-O-X'
p2472
I1423
sS'-XXOO---X'
p2473
I1428
sS'---X-OXXO'
p2474
I950
sS'OO-XOXX-X'
p2475
I2530
sS'XXO--OX--'
p2476
I2531
sS'-O--X--X-'
p2477
I2532
sS'XX---O--O'
p2478
I4095
sS'-XXX--O-O'
p2479
I2533
sS'XOXO-XX-O'
p2480
I2534
sS'--XXOO-XO'
p2481
I4182
sS'OOX-XXOXO'
p2482
I1474
sS'--O-X-XOX'
p2483
I2536
sS'OXXO-O--X'
p2484
I2537
sS'---O--X--'
p2485
I2538
sS'--XXOX-OO'
p2486
I2539
sS'--O-X-XO-'
p2487
I2540
sS'-OX-XO-OX'
p2488
I1524
sS'OX---XOXO'
p2489
I2544
sS'-XO----XO'
p2490
I2545
sS'OXX--X-OO'
p2491
I1938
sS'X-O-X-O--'
p2492
I1555
sS'-XX---OO-'
p2493
I2548
sS'-O--X--XO'
p2494
I2549
sS'OX--XXO--'
p2495
I2550
sS'XXOOX-X-O'
p2496
I2551
sS'OOXXOXOX-'
p2497
I1578
sS'OOX-XXOX-'
p2498
I2553
sS'--OOX--XX'
p2499
I2554
sS'OOXX-O-X-'
p2500
I2555
sS'X-XO-O---'
p2501
I2556
sS'X--X-XOO-'
p2502
I1181
sS'O-OOXXX-X'
p2503
I2558
sS'X--------'
p2504
I2559
sS'-OXXOOXX-'
p2505
I2560
sS'-X-X-XOO-'
p2506
I2561
sS'X----O-XO'
p2507
I2562
sS'O-XX-XXOO'
p2508
I2563
sS'OXX--X--O'
p2509
I2565
sS'OXOO--XX-'
p2510
I1692
sS'-XXOO-XXO'
p2511
I2567
sS'--OX--OXX'
p2512
I1702
sS'-X--OO--X'
p2513
I2569
sS'X--XOOOX-'
p2514
I920
sS'-O-XOXXXO'
p2515
I2571
sS'-OX-XX--O'
p2516
I2572
sS'---OXO-XX'
p2517
I2573
sS'-OX----X-'
p2518
I2574
sS'--XX-OOOX'
p2519
I1743
sS'-OXO-OX-X'
p2520
I2576
sS'-XOOX-O-X'
p2521
I4189
sS'----OXX--'
p2522
I2578
sS'------OX-'
p2523
I2076
sS'O-----OXX'
p2524
I102
sS'XXOO----X'
p2525
I2729
sS'-O-XXO-OX'
p2526
I2582
sS'OX-XOXOX-'
p2527
I1783
sS'O-XXOOOXX'
p2528
I2584
sS'-X--X---O'
p2529
I1618
sS'-XXX-O--O'
p2530
I1791
sS'OX----X-O'
p2531
I2587
sS'X---OXOOX'
p2532
I2589
sS'--OXOXXOX'
p2533
I2590
sS'X--OXOX-O'
p2534
I1808
sS'X-O-XXO-O'
p2535
I2592
sS'XXO---XO-'
p2536
I1380
sS'-XXO---XO'
p2537
I1831
sS'-O-O-XXX-'
p2538
I2595
sS'-OXXOOX--'
p2539
I1841
sS'OO-XOX--X'
p2540
I1848
sS'--XX--OO-'
p2541
I3213
sS'O-X--X-XO'
p2542
I1870
sS'X-O--X-O-'
p2543
I2600
sS'O--OXXX--'
p2544
I2601
sS'X-O--XXOO'
p2545
I1885
sS'X-X-OXOXO'
p2546
I2603
sS'-X-XO-X-O'
p2547
I3721
sS'XX-O-O---'
p2548
I2604
sS'OX--OO-XX'
p2549
I1902
sS'-OXXOX---'
p2550
I2606
sS'---XX-OO-'
p2551
I2607
sS'--OX-X-XO'
p2552
I1917
sS'XX--O-OX-'
p2553
I1925
sS'OOX-X--OX'
p2554
I1931
sS'X-OOO--XX'
p2555
I2611
sS'X-O--X-OX'
p2556
I2612
sS'OXX--O-OX'
p2557
I2614
sS'O--XX-X-O'
p2558
I2615
sS'---XX-OOX'
p2559
I337
sS'-XX--XOO-'
p2560
I2617
sS'-XXOO-XO-'
p2561
I1233
sS'--O-XX-XO'
p2562
I2619
sS'XXOX-O-OX'
p2563
I2620
sS'X-O--XXO-'
p2564
I2621
sS'-OXXOOX-X'
p2565
I2623
sS'X--OOXX--'
p2566
I3432
sS'OX-XOOX-X'
p2567
I2020
sS'-OXXOX--O'
p2568
I2625
sS'-XXXO-XOO'
p2569
I2626
sS'O-XXXO---'
p2570
I2627
sS'------OXX'
p2571
I1364
sS'-----XOOX'
p2572
I3300
sS'OO---XOXX'
p2573
I2630
sS'--XX-OXOO'
p2574
I891
sS'X--X-XO-O'
p2575
I1488
sS'O-XXOO-XX'
p2576
I2061
sS'--OXOXXO-'
p2577
I2633
sS'OOXX---OX'
p2578
I623
sS'--OX-XOXO'
p2579
I3497
sS'X---X--OO'
p2580
I2635
sS'-O--O-X-X'
p2581
I2636
sS'----OXX-O'
p2582
I503
sS'O-OXO--XX'
p2583
I2638
sS'OXO-OXXOX'
p2584
I2639
sS'---XXOXO-'
p2585
I3583
sS'-X-XOXOXO'
p2586
I2106
sS'---O-XOXX'
p2587
I555
sS'OX----X--'
p2588
I2643
sS'XOX-X--OO'
p2589
I2644
sS'---XXOXOO'
p2590
I186
sS'--O-XO-XX'
p2591
I2646
sS'OXX-O--X-'
p2592
I1518
sS'-X--XO--O'
p2593
I2648
sS'XX-O-OX--'
p2594
I3491
sS'O--O--X-X'
p2595
I2649
sS'--OXXO-X-'
p2596
I2650
sS'---OXX--O'
p2597
I2651
sS'OXX--X-O-'
p2598
I1957
sS'XX---OOX-'
p2599
I2167
sS'-X---OXOX'
p2600
I2654
sS'X---OXO--'
p2601
I2036
sS'X-OX--OOX'
p2602
I2656
sS'-XXXOX-OO'
p2603
I2657
sS'O-OXO-X-X'
p2604
I2658
sS'--X--O---'
p2605
I2659
sS'OOXOX--XX'
p2606
I2660
sS'XO--O--X-'
p2607
I2661
sS'X-O--XOOX'
p2608
I2662
sS'-O-OX-X-X'
p2609
I2663
sS'--X-O---X'
p2610
I2220
sS'OX--XXO-O'
p2611
I2223
sS'-O---X--X'
p2612
I2666
sS'--X---O-X'
p2613
I2668
sS'OOX-XXO--'
p2614
I2669
sS'-X--OO-XX'
p2615
I2670
sS'-XOO--XXO'
p2616
I2671
sS'X-XX-OOO-'
p2617
I2672
sS'XOOX---OX'
p2618
I2673
sS'---XO-XO-'
p2619
I2674
sS'-XOOOXX--'
p2620
I4200
sS'---XXOO--'
p2621
I3493
sS'-OXX-OOXX'
p2622
I2677
sS'O-X-OO-XX'
p2623
I4079
sS'X-O-XO---'
p2624
I2678
sS'OO-X--XOX'
p2625
I2679
sS'O-X-X-OX-'
p2626
I2680
sS'X--XXOO-O'
p2627
I2681
sS'---XOX---'
p2628
I2682
sS'-XXX-OOO-'
p2629
I860
sS'-X---XO--'
p2630
I2335
sS'------X--'
p2631
I2151
sS'O-X--OOXX'
p2632
I2345
sS'X--XO--O-'
p2633
I2688
sS'-XOO--XX-'
p2634
I2689
sS'-XXX-OOOX'
p2635
I2690
sS'OO-X-OXX-'
p2636
I4431
sS'XOXOO-OXX'
p2637
I2691
sS'OXO-X-XOX'
p2638
I4034
sS'XO-XO-OXX'
p2639
I4390
sS'X--XO--OX'
p2640
I2692
sS'--O---X--'
p2641
I4511
sS'X-XX-OOOX'
p2642
I2694
sS'O-X-X-OXO'
p2643
I2695
sS'OO--XOX-X'
p2644
I462
sS'-X--OO-X-'
p2645
I2697
sS'-XOXX--O-'
p2646
I2698
sS'X--XXOO--'
p2647
I2700
sS'-X---XO-O'
p2648
I2701
sS'O-OXX-O-X'
p2649
I2441
sS'-OXX-OOX-'
p2650
I2703
sS'--XXO--O-'
p2651
I2704
sS'---XOO-XX'
p2652
I2705
sS'-X--XO---'
p2653
I2706
sS'OXXO-XX-O'
p2654
I1691
sS'XO--OX-XO'
p2655
I2476
sS'---OXX---'
p2656
I2482
sS'-XOOX-XO-'
p2657
I2737
sS'--X--O--X'
p2658
I2710
sS'O--X-OXOX'
p2659
I1968
sS'XXO-X-XOO'
p2660
I2499
sS'-O---X---'
p2661
I2713
sS'X-X-XOO-O'
p2662
I3950
sS'--X---O--'
p2663
I2506
sS'-O-OX-X--'
p2664
I2508
sS'X-XXOX-OO'
p2665
I2514
sS'--X-O----'
p2666
I2717
sS'OOXXOOX-X'
p2667
I2526
sS'XOXOX-O--'
p2668
I3512
sS'-OOX-X-X-'
p2669
I2719
sS'XXOXX--OO'
p2670
I2720
sS'-XOXXOOOX'
p2671
I2721
sS'-XXX--OO-'
p2672
I1748
sS'-O----X--'
p2673
I3007
sS'OXXO--XXO'
p2674
I2750
sS'-X---OXO-'
p2675
I2725
sS'-X-XX--OO'
p2676
I1970
sS'OX-X-XOO-'
p2677
I2727
sS'--OXXOOXX'
p2678
I2728
sS'OXX---X-O'
p2679
I2581
sS'O-X---O-X'
p2680
I2730
sS'--XO--XOX'
p2681
I2731
sS'X--OO-XXO'
p2682
I4172
sS'X-OO--XOX'
p2683
I2733
sS'OXO-XXXOO'
p2684
I2599
sS'O--OX-XXO'
p2685
I2735
sS'-O--XO-XX'
p2686
I2736
sS'-XX-OOO-X'
p2687
I1472
sS'--XXO--XO'
p2688
I1934
sS'--X-OXOXO'
p2689
I2739
sS'XX-X---OO'
p2690
I2740
sS'O-XXXO--O'
p2691
I2741
sS'XOOXX-OX-'
p2692
I2742
sS'--X--OOXX'
p2693
I825
sS'X-O---O-X'
p2694
I2744
sS'OXXXO-O-X'
p2695
I2124
sS'XX--O--OX'
p2696
I2745
sS'--XXO-OOX'
p2697
I2746
sS'-O-OX-XX-'
p2698
I2747
sS'-X-XOOOX-'
p2699
I4018
sS'-XX-OX--O'
p2700
I2748
sS'------O-X'
p2701
I2306
sS'OXO-OXX--'
p2702
I2925
sS'OOXXXOOX-'
p2703
I4210
sS'--OOXXOXX'
p2704
I2724
sS'XOO----XX'
p2705
I3502
sS'--OOX--X-'
p2706
I2752
sS'-X-OO-XX-'
p2707
I685
sS'OXX-X---O'
p2708
I2754
sS'-XOX-X--O'
p2709
I2755
sS'XOOO-XOXX'
p2710
I3503
sS'-XXO-O---'
p2711
I2757
sS'X-OOXXXOO'
p2712
I2758
sS'X--X---OO'
p2713
I2759
sS'X--OX-OX-'
p2714
I2760
sS'XXO-X-OO-'
p2715
I2761
sS'XOOX-X-OX'
p2716
I2762
sS'-XXO-XO--'
p2717
I2765
sS'-O-OX-XXO'
p2718
I2807
sS'XOXX--O--'
p2719
I3505
sS'OX-OO-X-X'
p2720
I3015
sS'-O-XO-XX-'
p2721
I2768
sS'X-XO---XO'
p2722
I2769
sS'X------XO'
p2723
I2770
sS'XOOX-X-O-'
p2724
I2772
sS'O-OXX--OX'
p2725
I2773
sS'X--X---O-'
p2726
I2774
sS'-OXXXOOX-'
p2727
I1050
sS'-XXO-XO-O'
p2728
I2776
sS'-XOOX-XOX'
p2729
I2777
sS'OOXX-O--X'
p2730
I2778
sS'O--XXOXO-'
p2731
I2779
sS'OOX-O--XX'
p2732
I2780
sS'--OOXXOX-'
p2733
I2781
sS'OX----XO-'
p2734
I4218
sS'O--XOOXX-'
p2735
I2784
sS'XX--O--O-'
p2736
I2785
sS'O--OX-XX-'
p2737
I2786
sS'-O--OXX--'
p2738
I2787
sS'XX-OOXO-X'
p2739
I2788
sS'--XO--XO-'
p2740
I2789
sS'--XXOOXXO'
p2741
I2790
sS'OX-X-XOOX'
p2742
I2791
sS'-OOX--X--'
p2743
I2792
sS'XXOO-----'
p2744
I2793
sS'--OXXOOX-'
p2745
I2794
sS'XOOXX-OXO'
p2746
I2795
sS'X-XXO-O--'
p2747
I1582
sS'-X-OXOX-O'
p2748
I3364
sS'OX-XO--OX'
p2749
I2797
sS'OXOXO-XOX'
p2750
I2798
sS'XXO-XX-OO'
p2751
I2800
sS'-XOXOX-O-'
p2752
I3016
sS'-OXXO--XO'
p2753
I2803
sS'---O--XOX'
p2754
I2804
sS'XOO---OXX'
p2755
I2805
sS'X-XXOOOX-'
p2756
I2806
sS'--X-XO-OX'
p2757
I2808
sS'X-OOXX---'
p2758
I2809
sS'XXOXOO-X-'
p2759
I2810
sS'O----O-XX'
p2760
I2811
sS'XOXXO----'
p2761
I2812
sS'XOO-XOXX-'
p2762
I2813
sS'-O-OXXXO-'
p2763
I937
sS'-X-X-OOOX'
p2764
I2815
sS'-XO---XO-'
p2765
I3559
sS'X-X-X--OO'
p2766
I2816
sS'-OX--X--O'
p2767
I882
sS'-XX-O--OX'
p2768
I2818
sS'O-XXOXXO-'
p2769
I2819
sS'OXXX-OO--'
p2770
I2820
sS'--XXOX--O'
p2771
I2821
sS'--O-X-XXO'
p2772
I2822
sS'OX---O-X-'
p2773
I2823
sS'X-XOX--OO'
p2774
I2824
sS'---XOXXO-'
p2775
I2825
sS'-X-XOXOO-'
p2776
I4224
sS'XO---OX--'
p2777
I2828
sS'O--O-XXOX'
p2778
I1201
sS'O--O---XX'
p2779
I2830
sS'-XXO-O--X'
p2780
I2831
sS'--XXXO--O'
p2781
I2042
sS'O-XX-O-OX'
p2782
I2833
sS'O--XO-X-X'
p2783
I2834
sS'O-OXXO-X-'
p2784
I2836
sS'OO-OXXXOX'
p2785
I2837
sS'-XO-XXO-O'
p2786
I2838
sS'XXO--X--O'
p2787
I2840
sS'O-OXXO-XX'
p2788
I2841
sS'O--XO-X--'
p2789
I2842
sS'---XOXXOO'
p2790
I2843
sS'-OO-X---X'
p2791
I2844
sS'-----XXOO'
p2792
I2845
sS'XXOO-X--O'
p2793
I1198
sS'OO--XX-OX'
p2794
I2322
sS'OXO-XOXOX'
p2795
I2849
sS'OXX-OO--X'
p2796
I4099
sS'--OOXOX-X'
p2797
I2852
sS'OX---O-XX'
p2798
I2853
sS'-XO-XXO--'
p2799
I2854
sS'-X-OO-XXO'
p2800
I2855
sS'XO---OX-X'
p2801
I2857
sS'XO---XOOX'
p2802
I2858
sS'-XX-O--O-'
p2803
I2859
sS'-O-OXXXOX'
p2804
I810
sS'-OXXX-O-O'
p2805
I139
sS'XOX-O-O-X'
p2806
I3518
sS'XOXXO---O'
p2807
I2864
sS'X--XO-OOX'
p2808
I4231
sS'O-O--XXXO'
p2809
I2866
sS'-X--OOXOX'
p2810
I2867
sS'X-XX--OO-'
p2811
I2616
sS'X-----XOO'
p2812
I2869
sS'OX-OXX-O-'
p2813
I4418
sS'--X-XO-O-'
p2814
I2872
sS'--OX-XX-O'
p2815
I2873
sS'X--OX-OXO'
p2816
I2775
sS'OXXX-O---'
p2817
I2875
sS'OX-X-XXOO'
p2818
I3063
sS'O-XX--X-O'
p2819
I3520
sS'-XXXOOXO-'
p2820
I3857
sS'-OX--X---'
p2821
I2878
sS'X-X--OXO-'
p2822
I1991
sS'O-O--X-XX'
p2823
I2881
sS'XO--X-XOO'
p2824
I2882
sS'OXOO-XXX-'
p2825
I2883
sS'OXO--XX--'
p2826
I3521
sS'XOOO-XX--'
p2827
I2885
sS'XOX-O--X-'
p2828
I2886
sS'O--XOXOXX'
p2829
I2887
sS'X--O-XOOX'
p2830
I2888
sS'XX-O-O-X-'
p2831
I3751
sS'-O--X----'
p2832
I2890
sS'O-XXO-X--'
p2833
I2891
sS'--XX----O'
p2834
I2892
sS'XOO-XX--O'
p2835
I2893
sS'XO-OXX-XO'
p2836
I2894
sS'-XX-OO-X-'
p2837
I2895
sS'-OXX-----'
p2838
I2896
sS'-O--OX--X'
p2839
I2897
sS'-OOX-XXXO'
p2840
I2898
sS'OO-XO-X-X'
p2841
I1890
sS'-O---X-X-'
p2842
I2900
sS'-XOXO-XO-'
p2843
I3704
sS'XXOO-XOXO'
p2844
I4417
sS'--OXX--O-'
p2845
I2901
sS'OXO-OXX-X'
p2846
I2902
sS'X--XO--XO'
p2847
I2903
sS'O--OXX-OX'
p2848
I2904
sS'---OXOX-X'
p2849
I2905
sS'--OXO-XX-'
p2850
I2087
sS'---XXO-O-'
p2851
I2908
sS'OXOOXX---'
p2852
I3886
sS'XXO-O---X'
p2853
I2910
sS'XX-X-O--O'
p2854
I2911
sS'-OXX----O'
p2855
I3623
sS'-OOX-OX-X'
p2856
I2914
sS'XOXX---O-'
p2857
I2915
sS'-O---X-XO'
p2858
I74
sS'X-XOX-O--'
p2859
I3072
sS'XXO-OX-OX'
p2860
I2917
sS'XO-OX-XXO'
p2861
I4205
sS'-XXOXX-OO'
p2862
I2919
sS'---XXO-OX'
p2863
I2415
sS'-OX-OX-XO'
p2864
I2921
sS'-X--XO-O-'
p2865
I4243
sS'OOX-XO--X'
p2866
I2923
sS'--OXO-XXO'
p2867
I331
sS'-----X---'
p2868
I1434
sS'---X--O--'
p2869
I2927
sS'XOXX-OO-X'
p2870
I2928
sS'O--XOXOX-'
p2871
I2929
sS'X--OXX--O'
p2872
I2930
sS'XOOO-XX-X'
p2873
I2931
sS'-OXO----X'
p2874
I2933
sS'XO--X-XO-'
p2875
I2934
sS'OXOO-XXXO'
p2876
I2936
sS'XOX-O--XO'
p2877
I2937
sS'-OO--XOXX'
p2878
I2938
sS'O--XOXX--'
p2879
I2939
sS'O-X-X--O-'
p2880
I2940
sS'O-O--X-X-'
p2881
I1012
sS'OXO-XXXO-'
p2882
I2942
sS'XOO-XX---'
p2883
I788
sS'O-OX-XOX-'
p2884
I2944
sS'-X-X--O--'
p2885
I2002
sS'X-OXO--X-'
p2886
I2946
sS'XOOOXXOX-'
p2887
I2947
sS'XOO-O--XX'
p2888
I2948
sS'XO-OX-X-O'
p2889
I3867
sS'XO-O-XOX-'
p2890
I2949
sS'O-X-OOXX-'
p2891
I2950
sS'O--XX--XO'
p2892
I2951
sS'X--O--XXO'
p2893
I2952
sS'--X--OOX-'
p2894
I2953
sS'-O---XXO-'
p2895
I2954
sS'-OXXOOXXO'
p2896
I2507
sS'XXO--X-OO'
p2897
I4326
sS'-OOXOXX--'
p2898
I2955
sS'X-XX-OO-O'
p2899
I2956
sS'---OXOX--'
p2900
I2957
sS'-X---X-O-'
p2901
I2958
sS'--O----XX'
p2902
I2959
sS'XX-OXOXOO'
p2903
I2961
sS'OXO-XXX-O'
p2904
I2962
sS'-X-OOXOXX'
p2905
I3597
sS'X-O---OX-'
p2906
I2964
sS'X--O-XOXO'
p2907
I3225
sS'--OXX--XO'
p2908
I2485
sS'X-OXO--OX'
p2909
I2967
sS'OXOX--X-O'
p2910
I2968
sS'XXO-O-XOX'
p2911
I2969
sS'--XX-O-OX'
p2912
I4124
sS'X-OOXX-XO'
p2913
I2971
sS'-XOX--O-X'
p2914
I2972
sS'XX-X-OOO-'
p2915
I2005
sS'-X--O--XO'
p2916
I2973
sS'-OXOO-XX-'
p2917
I2974
sS'-OXOXOOXX'
p2918
I2975
sS'-X---X-OO'
p2919
I2977
sS'XXO-O-XO-'
p2920
I2978
sS'OOXX--XXO'
p2921
I2979
sS'XX-OXOXO-'
p2922
I2980
sS'-XX-OO-OX'
p2923
I2981
sS'-XX-O-XO-'
p2924
I4434
sS'-OXXXOO-X'
p2925
I2982
sS'-XOX--O--'
p2926
I4070
sS'XO-XX--OO'
p2927
I2984
sS'--O----X-'
p2928
I575
sS'-OXO---XX'
p2929
I2986
sS'-OXOXX-XO'
p2930
I2987
sS'O--XXO-X-'
p2931
I2796
sS'XOX-O-XXO'
p2932
I2990
sS'OXOX-O--X'
p2933
I4336
sS'-X--O--X-'
p2934
I2991
sS'X-O---OXX'
p2935
I2992
sS'OOXXOXX--'
p2936
I2993
sS'-O---XXOX'
p2937
I2994
sS'XOOXOO-XX'
p2938
I2995
sS'OO-XOXX--'
p2939
I2996
sS'-XOO-OX-X'
p2940
I3538
sS'X-O--X-XO'
p2941
I2998
sS'XXOX---OO'
p2942
I4257
sS'-X-O-OX-X'
p2943
I2999
sS'X-O----X-'
p2944
I3951
sS'-OOXOXX-X'
p2945
I465
sS'X-X-O-OOX'
p2946
I3001
sS'OXOX--XXO'
p2947
I3002
sS'OOXO--X-X'
p2948
I3003
sS'O-OX-XOXX'
p2949
I3004
sS'-O--XO-X-'
p2950
I3005
sS'OXOOOX-XX'
p2951
I3006
sS'O-XOX--X-'
p2952
I4023
sS'XOOOOXX-X'
p2953
I2014
sS'XO-O-XOXX'
p2954
I3009
sS'X-XX-OO--'
p2955
I3010
sS'OX-X-OOXX'
p2956
I3011
sS'OXOX-O-X-'
p2957
I3012
sS'-OO-XX-XO'
p2958
I3418
sS'-XO--X--O'
p2959
I3014
sS'O---XXOX-'
p2960
I1187
sS'OXXO--XOX'
p2961
I3017
sS'OX-XOO-XX'
p2962
I3018
sS'OOXO--XX-'
p2963
I3019
sS'O--XXOOXX'
p2964
I3020
sS'-X-X--O-O'
p2965
I2059
sS'OX-X---O-'
p2966
I4495
sS'X-XOX-O-O'
p2967
I3023
sS'XOXXOOOX-'
p2968
I3024
sS'O-X---X--'
p2969
I3680
sS'-O-XO-OXX'
p2970
I3025
sS'XOXO---XO'
p2971
I3026
sS'-OXX-X-O-'
p2972
I3027
sS'-X--XOX-O'
p2973
I3028
sS'OOXX---XO'
p2974
I3029
sS'-XOO-XOX-'
p2975
I3030
sS'XX--O-OOX'
p2976
I4262
sS'O----XO-X'
p2977
I2079
sS'-X-----O-'
p2978
I3033
sS'XOOO-XXXO'
p2979
I3034
sS'OO-XXO--X'
p2980
I3035
sS'--XOXOO-X'
p2981
I1539
sS'X--OOXOX-'
p2982
I3037
sS'OX-X-XO-O'
p2983
I3038
sS'--OX-XO--'
p2984
I3039
sS'--OX-X-O-'
p2985
I2445
sS'XXOOXOX--'
p2986
I3041
sS'X---XOXO-'
p2987
I3042
sS'--X--OX--'
p2988
I4447
sS'OXXX---OO'
p2989
I3044
sS'X-O-O---X'
p2990
I3045
sS'XXOO--X--'
p2991
I3847
sS'X--OOXOXX'
p2992
I3046
sS'-X-OXOX--'
p2993
I3047
sS'--O-O-X-X'
p2994
I3048
sS'--XX-XOO-'
p2995
I3049
sS'O-XXXO-XO'
p2996
I3050
sS'O---X--OX'
p2997
I2851
sS'--X-OOOXX'
p2998
I3052
sS'-XOO-XOXX'
p2999
I3053
sS'XXOOX--O-'
p3000
I3054
sS'XOOO-XXX-'
p3001
I3055
sS'OX-X--OX-'
p3002
I3544
sS'XOOXX---O'
p3003
I3132
sS'---X---XO'
p3004
I3
sS'-X-----OX'
p3005
I3057
sS'-O-X--X-O'
p3006
I3058
sS'OOXX-XX-O'
p3007
I3059
sS'OX-X-XO--'
p3008
I3060
sS'OXXX---O-'
p3009
I28
sS'O-O-XXX-O'
p3010
I2629
sS'-OO-XX-X-'
p3011
I2139
sS'OX-XX-OO-'
p3012
I4267
sS'-XXOXO-OX'
p3013
I53
sS'-XO--X---'
p3014
I1082
sS'O---XXOXO'
p3015
I271
sS'OXO-XXOOX'
p3016
I3068
sS'XX-OOX---'
p3017
I4269
sS'O-X-XOOXX'
p3018
I268
sS'O-OXX-X--'
p3019
I3071
sS'OX-X-OOX-'
p3020
I1195
sS'XOXX--O-O'
p3021
I3546
sS'OX-OO--XX'
p3022
I2879
sS'X-OX-O-X-'
p3023
I122
sS'O--XXOOX-'
p3024
I3075
sS'OXXO--XO-'
p3025
I3076
sS'XOXO---X-'
p3026
I3077
sS'---XOOX-X'
p3027
I161
sS'X-----XO-'
p3028
I2817
sS'-X-OO-X--'
p3029
I171
sS'XOOXX----'
p3030
I3081
sS'X-XOOXXO-'
p3031
I178
sS'-XXOO--OX'
p3032
I3083
sS'X-OOX-XO-'
p3033
I4507
sS'X-OO-OXX-'
p3034
I3085
sS'X-OO-X-XO'
p3035
I4273
sS'OXOX-OXOX'
p3036
I1286
sS'X--OX-X-O'
p3037
I3088
sS'-OOOXXX--'
p3038
I3089
sS'----XOOX-'
p3039
I3090
sS'XOX--O-X-'
p3040
I3091
sS'OO-X---X-'
p3041
I3092
sS'---XOXX-O'
p3042
I3093
sS'XOXO-XXOO'
p3043
I3094
sS'OOX--OX-X'
p3044
I3095
sS'O-O-XXO-X'
p3045
I1530
sS'--OX--O-X'
p3046
I3097
sS'O--OX--XX'
p3047
I3098
sS'XX-O-OXOX'
p3048
I3099
sS'-X-X-O--O'
p3049
I3100
sS'XOXO-X--O'
p3050
I2802
sS'-O-X-X---'
p3051
I3102
sS'-O-O-XX-X'
p3052
I3250
sS'O-XOO--XX'
p3053
I3104
sS'OOX-O-X-X'
p3054
I4220
sS'X-O--X--O'
p3055
I326
sS'X-OOOX--X'
p3056
I2028
sS'-XOXOX--O'
p3057
I3107
sS'O--X-O-X-'
p3058
I3108
sS'-X---OO-X'
p3059
I3109
sS'-X--O-X-O'
p3060
I3110
sS'XXOO-XO-X'
p3061
I3111
sS'XXOO-X-O-'
p3062
I3112
sS'-OO-X-XOX'
p3063
I3113
sS'XX-OOXO--'
p3064
I2743
sS'O--X-O-XX'
p3065
I3115
sS'-X-X-O---'
p3066
I3116
sS'-XXOO-X--'
p3067
I1060
sS'OXX---OOX'
p3068
I3118
sS'O-OOXXXOX'
p3069
I3119
sS'XX-O-OXO-'
p3070
I3120
sS'-XX-OXOO-'
p3071
I411
sS'X-O--X---'
p3072
I3122
sS'O--OX--X-'
p3073
I3123
sS'-O-X-X-OX'
p3074
I1570
sS'XX-O-X--O'
p3075
I3125
sS'--XX-OX-O'
p3076
I386
sS'-X--O-X--'
p3077
I3127
sS'OXXO-X-XO'
p3078
I3128
sS'X-OO--X-X'
p3079
I3129
sS'OXOX-OX--'
p3080
I3130
sS'XXOXOX-O-'
p3081
I3131
sS'OO--X-XOX'
p3082
I2766
sS'OOXXO-XX-'
p3083
I3133
sS'XX-OXO--O'
p3084
I2033
sS'OO-X---XX'
p3085
I3135
sS'X-XOOXXOO'
p3086
I3136
sS'--XOOXOX-'
p3087
I3137
sS'-OXXX-O--'
p3088
I3138
sS'----XOOXX'
p3089
I3139
sS'-----XXO-'
p3090
I3140
sS'OXXXX-OO-'
p3091
I3141
sS'-X-OO-X-X'
p3092
I3142
sS'---XOOX--'
p3093
I691
sS'-OOX-X-OX'
p3094
I94
sS'XOX--O-XO'
p3095
I3145
sS'OOX--X---'
p3096
I3146
sS'XXO-O-X-O'
p3097
I3553
sS'XOXO-XXO-'
p3098
I3147
sS'-O--XOXX-'
p3099
I3148
sS'OOX-----X'
p3100
I3149
sS'-XO-X--O-'
p3101
I3150
sS'-X-X-O-XO'
p3102
I1309
sS'X-XOXO-XO'
p3103
I3152
sS'--XXXO-OO'
p3104
I2031
sS'-X-XO-XOO'
p3105
I588
sS'-X-OOXXXO'
p3106
I3156
sS'XOOXO---X'
p3107
I3157
sS'-XX-OXXOO'
p3108
I608
sS'--XX--OOX'
p3109
I3159
sS'X--O-XOX-'
p3110
I3160
sS'O---XOXOX'
p3111
I1214
sS'-O--X-X-O'
p3112
I3162
sS'XOX--OX-O'
p3113
I2832
sS'OOXX--XOX'
p3114
I3164
sS'-OX-----X'
p3115
I3165
sS'-X-X-OXOO'
p3116
I3166
sS'OXOX-XOXO'
p3117
I3167
sS'OX-OOX-X-'
p3118
I3168
sS'-X-O-O--X'
p3119
I3169
sS'--XXO-X-O'
p3120
I689
sS'OX-XOXO-X'
p3121
I3171
sS'OOX--OXX-'
p3122
I3172
sS'X---O----'
p3123
I3173
sS'-O-XOXOXX'
p3124
I3174
sS'--O--X---'
p3125
I3175
sS'OXXX-O-OX'
p3126
I3176
sS'-XXO-X--O'
p3127
I3177
sS'XX-OO-X-O'
p3128
I3178
sS'XOX-OXOX-'
p3129
I3179
sS'X-OXOX-XO'
p3130
I3180
sS'-OX--O-XX'
p3131
I3181
sS'XX---OX-O'
p3132
I3182
sS'XX---X-OO'
p3133
I759
sS'XX-OOX--O'
p3134
I4290
sS'X-XXO-OOX'
p3135
I3184
sS'--O---X-X'
p3136
I3185
sS'-X-X-OXO-'
p3137
I3186
sS'-OX--O-X-'
p3138
I1479
sS'--X--OXXO'
p3139
I3188
sS'OXOX-XOX-'
p3140
I3189
sS'-OOX-O-XX'
p3141
I3190
sS'OO-OXX--X'
p3142
I1537
sS'X-----X-O'
p3143
I3193
sS'O-XX-XO--'
p3144
I3153
sS'XOO--O-XX'
p3145
I3194
sS'OX--OX-X-'
p3146
I3195
sS'OX-OOX-XX'
p3147
I837
sS'OXO-----X'
p3148
I845
sS'X-X--OXOO'
p3149
I2046
sS'---O-OX-X'
p3150
I3199
sS'OOXX--XO-'
p3151
I3200
sS'-OX------'
p3152
I3201
sS'X-X-OOXXO'
p3153
I3202
sS'-O-XOXOX-'
p3154
I3203
sS'---OO-XX-'
p3155
I872
sS'OXXX-O-O-'
p3156
I874
sS'OX-XOXO--'
p3157
I3207
sS'X---O---X'
p3158
I3208
sS'-XXXO-OO-'
p3159
I3209
sS'-XOX-OOXX'
p3160
I3210
sS'-O-OXX-XO'
p3161
I3211
sS'-OOX--XOX'
p3162
I2171
sS'XXOXOX-OO'
p3163
I3080
sS'O-XX-XO-O'
p3164
I911
sS'-X-XO-XO-'
p3165
I3215
sS'OXXXOOX--'
p3166
I3216
sS'O-OXOX--X'
p3167
I3217
sS'O--XO-XOX'
p3168
I3218
sS'XOXOX----'
p3169
I3219
sS'-OXO-OXX-'
p3170
I3220
sS'-O--X-OXX'
p3171
I3566
sS'X--OO---X'
p3172
I948
sS'XX---OXOO'
p3173
I3223
sS'X-OO---X-'
p3174
I231
sS'-XO-X--OX'
p3175
I961
sS'-X--XXOO-'
p3176
I3226
sS'-O--X-X--'
p3177
I3227
sS'X-O--OXOX'
p3178
I3228
sS'--OX--X-O'
p3179
I4295
sS'OX-X--OOX'
p3180
I3229
sS'X---XXO-O'
p3181
I3230
sS'OXOXOXX--'
p3182
I3231
sS'-XXO-OOXX'
p3183
I3232
sS'XO-XO-OX-'
p3184
I4436
sS'OO--X---X'
p3185
I2332
sS'--XOXO-XO'
p3186
I323
sS'-XX--OXO-'
p3187
I1038
sS'OXOXXOO-X'
p3188
I3236
sS'-OXX-XXOO'
p3189
I3000
sS'X-OOOX-X-'
p3190
I3238
sS'-XXXXOO-O'
p3191
I3239
sS'-OXXO-O-X'
p3192
I3569
sS'XO--XOXXO'
p3193
I3241
sS'XXO-O--OX'
p3194
I3242
sS'XO-X--O-X'
p3195
I3243
sS'---X-O-XO'
p3196
I3244
sS'O-OX-XXOX'
p3197
I3245
sS'--O-OX--X'
p3198
I1092
sS'XXO-OO-X-'
p3199
I1095
sS'XX--OXOXO'
p3200
I3248
sS'-XXO-O-OX'
p3201
I3249
sS'-X--XOXO-'
p3202
I3251
sS'OXO--OX-X'
p3203
I3966
sS'OX--X---O'
p3204
I1118
sS'XOO-X-X-O'
p3205
I1121
sS'-X-OX-X-O'
p3206
I3212
sS'OXX-O-XOX'
p3207
I3255
sS'X-X--XO-O'
p3208
I3257
sS'-O-XO---X'
p3209
I3258
sS'XX-O-XOXO'
p3210
I3259
sS'-O-X-XO--'
p3211
I711
sS'--X-XOOX-'
p3212
I3947
sS'X--XX--OO'
p3213
I2194
sS'X-XO-X-O-'
p3214
I2846
sS'OXOX----X'
p3215
I2557
sS'XOO-X-X--'
p3216
I3264
sS'-O-X-XXO-'
p3217
I935
sS'-OOXO-X-X'
p3218
I201
sS'--XOO-XOX'
p3219
I1266
sS'X---OO--X'
p3220
I3268
sS'-XOXXOO-X'
p3221
I3269
sS'XOOX-XO--'
p3222
I3270
sS'-OX-XXOXO'
p3223
I3271
sS'-XO--X-OX'
p3224
I3594
sS'OXX-O-XO-'
p3225
I3272
sS'XOXX-OOOX'
p3226
I3273
sS'O-O-XOX-X'
p3227
I907
sS'OXX-OX---'
p3228
I3275
sS'XOOO--XX-'
p3229
I3074
sS'O-XO-XXO-'
p3230
I3277
sS'-X--XO-OX'
p3231
I4302
sS'-X---O--X'
p3232
I3278
sS'X-OOOX-XX'
p3233
I3279
sS'XOX-OOOXX'
p3234
I1349
sS'-XX--OXOO'
p3235
I1357
sS'XO-X--O--'
p3236
I3283
sS'--XOXO-X-'
p3237
I3284
sS'XX-O-XXOO'
p3238
I3285
sS'-XO-XXXOO'
p3239
I3286
sS'-XXO-OOX-'
p3240
I1381
sS'XOX-OXX-O'
p3241
I3288
sS'OXXXO----'
p3242
I3289
sS'-O---X-OX'
p3243
I3290
sS'X-XO-OOX-'
p3244
I3292
sS'XOX--XO--'
p3245
I4305
sS'-----X--O'
p3246
I3294
sS'---X-O-X-'
p3247
I1414
sS'O-O----XX'
p3248
I3296
sS'XXOO-X-OX'
p3249
I3105
sS'-XXOXO---'
p3250
I3577
sS'X-XO--OXO'
p3251
I3298
sS'O-X-XO-X-'
p3252
I3299
sS'--XXOO-OX'
p3253
I3923
sS'XO-XO--XO'
p3254
I1451
sS'O--XOOX-X'
p3255
I1460
sS'X-OX-OOXX'
p3256
I3303
sS'O-OOXX-X-'
p3257
I3304
sS'XXOO--XOX'
p3258
I3305
sS'--X-OOXOX'
p3259
I2870
sS'-X-OO--XX'
p3260
I3307
sS'-O-OXX-X-'
p3261
I3308
sS'--X-XOO-X'
p3262
I3309
sS'-XOO-XX--'
p3263
I3310
sS'OXOX--XOX'
p3264
I3311
sS'XO-XX-OXO'
p3265
I3673
sS'-XOX-XOO-'
p3266
I1525
sS'OX-O----X'
p3267
I3314
sS'O---XOX-X'
p3268
I3315
sS'-O---XX--'
p3269
I3316
sS'OXOXOX--X'
p3270
I2504
sS'-O-XO-X-X'
p3271
I1560
sS'OX-XO-OX-'
p3272
I3319
sS'-O-X-OX-X'
p3273
I3320
sS'O-XXOOX--'
p3274
I3321
sS'----X-X-O'
p3275
I3322
sS'O--OOX-XX'
p3276
I3323
sS'-XO--O-XX'
p3277
I1596
sS'-XX-XO--O'
p3278
I3325
sS'-XOOXOX-X'
p3279
I3326
sS'-OOX-XOX-'
p3280
I1609
sS'OXX-XOOOX'
p3281
I3328
sS'--XOOXX--'
p3282
I3329
sS'X-X-O-O--'
p3283
I3330
sS'--OOX-OXX'
p3284
I3331
sS'X-OOOXXX-'
p3285
I3332
sS'O--XOX-OX'
p3286
I1430
sS'-XO--O-X-'
p3287
I3334
sS'XX---O---'
p3288
I4043
sS'O-XXOOX-X'
p3289
I3335
sS'-OXXO--X-'
p3290
I3336
sS'XXOX-OOX-'
p3291
I3337
sS'X-X-O-O-X'
p3292
I3338
sS'-O---XX-O'
p3293
I1674
sS'-OOX-XOXX'
p3294
I1234
sS'-XOOXOX--'
p3295
I3341
sS'-XOXX---O'
p3296
I3234
sS'-X-O-XOOX'
p3297
I3342
sS'XO--XXO--'
p3298
I2326
sS'X---O--OX'
p3299
I2628
sS'-XXX-OO--'
p3300
I4211
sS'-XOX-XOOX'
p3301
I3343
sS'OX---OOXX'
p3302
I2718
sS'OX-XO-OXX'
p3303
I3345
sS'X-XXOOOXO'
p3304
I2861
sS'-O-X-OX--'
p3305
I3347
sS'OX-O-XX-O'
p3306
I3348
sS'X-OOOXXXO'
p3307
I3349
sS'-O-XO-X--'
p3308
I3350
sS'X-OOOXX--'
p3309
I3351
sS'-X-OO--X-'
p3310
I3352
sS'--XOX-OOX'
p3311
I3354
sS'O-X-XO-XO'
p3312
I1762
sS'X-XO--OX-'
p3313
I3356
sS'XO-XO--X-'
p3314
I3357
sS'OXOX--XO-'
p3315
I1782
sS'XOO--XOXX'
p3316
I4312
sS'-XXO--O--'
p3317
I3360
sS'OX-O-X-OX'
p3318
I3361
sS'OOXO---XX'
p3319
I3362
sS'--O-XOX-X'
p3320
I3204
sS'X-OOXX--O'
p3321
I2862
sS'O-OOXX-XX'
p3322
I3365
sS'-XOO-XX-O'
p3323
I443
sS'O--OXXXXO'
p3324
I3367
sS'-------X-'
p3325
I3368
sS'-OX--OX--'
p3326
I3369
sS'O-XXXOOOX'
p3327
I3370
sS'OXO-O-X-X'
p3328
I3743
sS'-XO-XXOOX'
p3329
I3371
sS'-XXOOXXOO'
p3330
I1875
sS'-O-XXOO-X'
p3331
I1531
sS'XOX-O-OX-'
p3332
I3374
sS'----XX-OO'
p3333
I3942
sS'-O-X-XXOO'
p3334
I1872
sS'-XOXOOXX-'
p3335
I1916
sS'X--OOXX-O'
p3336
I3378
sS'---OXO-X-'
p3337
I2637
sS'-OXX-O-X-'
p3338
I3380
sS'O---XOX--'
p3339
I3381
sS'---OXXOXO'
p3340
I3382
sS'X--X--OXO'
p3341
I2738
sS'XO---OOXX'
p3342
I3384
sS'O---XXO--'
p3343
I3385
sS'OOXO-XXXO'
p3344
I3548
sS'O-OXX-X-O'
p3345
I3386
sS'XXOOOX-XO'
p3346
I3387
sS'-O-OXXX--'
p3347
I3388
sS'--O--OX-X'
p3348
I3389
sS'-X---O-XO'
p3349
I3390
sS'OO-XOXOXX'
p3350
I3391
sS'XOO-X--X-'
p3351
I2868
sS'OOXXX--OX'
p3352
I2023
sS'XX--OOO-X'
p3353
I3394
sS'-OXXOXX-O'
p3354
I3395
sS'OXO--X-OX'
p3355
I3396
sS'-O-XX----'
p3356
I3397
sS'--XOXXOO-'
p3357
I2037
sS'---OX-OX-'
p3358
I3399
sS'XO----XOX'
p3359
I3400
sS'-XOXOOX-X'
p3360
I3401
sS'--X--OO-X'
p3361
I3402
sS'OOXXX--O-'
p3362
I2069
sS'--OXOX-OX'
p3363
I3404
sS'OXO-XXO-X'
p3364
I3405
sS'--OX-OOXX'
p3365
I3406
sS'XO----XO-'
p3366
I2094
sS'-O-OXXX-O'
p3367
I3408
sS'-XOXOOX--'
p3368
I3409
sS'-OOOXXX-X'
p3369
I3410
sS'O-O-X-X-X'
p3370
I3411
sS'---OX-OXX'
p3371
I2732
sS'XOX-XXOO-'
p3372
I3413
sS'-X---O-X-'
p3373
I3414
sS'-X-XOO-OX'
p3374
I3415
sS'-O-XX---O'
p3375
I3417
sS'OO-X-XOXX'
p3376
I1659
sS'-X-OX--OX'
p3377
I3420
sS'-OX-XXO--'
p3378
I3421
sS'X----OO-X'
p3379
I2182
sS'-O-XOO-XX'
p3380
I3423
sS'--XOX--OX'
p3381
I3424
sS'-XXOOXXO-'
p3382
I2205
sS'XXOOX----'
p3383
I2207
sS'OX----O-X'
p3384
I3596
sS'-O-XXOXXO'
p3385
I3428
sS'----XX-O-'
p3386
I3429
sS'XXOX--O--'
p3387
I3430
sS'-XO-XXOO-'
p3388
I3431
sS'OX--X-OOX'
p3389
I2089
sS'---OXXOX-'
p3390
I2254
sS'-XOX----O'
p3391
I3435
sS'O-XO--X-X'
p3392
I3715
sS'OX-X-----'
p3393
I3436
sS'O-O-XX-XO'
p3394
I2693
sS'-O--XXO--'
p3395
I3598
sS'----XO---'
p3396
I211
sS'X-O-XOXO-'
p3397
I3301
sS'O-OOX-XX-'
p3398
I2310
sS'-OO-X-XX-'
p3399
I3021
sS'X-X-OX--O'
p3400
I3441
sS'OXOOX---X'
p3401
I3442
sS'--OX-OX--'
p3402
I2622
sS'-OOOX-X-X'
p3403
I3444
sS'XO-O-X---'
p3404
I659
sS'XXO-OXXO-'
p3405
I3446
sS'--X-X-OXO'
p3406
I3447
sS'---O-XOX-'
p3407
I3448
sS'--OX-XOX-'
p3408
I2391
sS'O---X-X-O'
p3409
I2395
sS'OX-XOX-O-'
p3410
I2174
sS'-OOX-X---'
p3411
I3452
sS'X--XO-OXO'
p3412
I4499
sS'-XXO--XOO'
p3413
I3453
sS'OXXXOX-O-'
p3414
I1332
sS'X--O-X--O'
p3415
I3455
sS'----XO-X-'
p3416
I1764
sS'-XO---OXX'
p3417
I3457
sS'XOXXOX--O'
p3418
I3458
sS'X---OOXOX'
p3419
I3459
sS'OXOX-X-O-'
p3420
I2449
sS'XOO-XX-XO'
p3421
I3461
sS'-XOOXX--O'
p3422
I3462
sS'XXOO-XXOO'
p3423
I3463
sS'OXOX-OOXX'
p3424
I3464
sS'-O-OOXX-X'
p3425
I3465
sS'-OOXXO-XX'
p3426
I2484
sS'XOXO-OX--'
p3427
I3467
sS'---OOX-X-'
p3428
I3468
sS'-X-OXXO--'
p3429
I2497
sS'XXOOO-XOX'
p3430
I3470
sS'-O-X-X-XO'
p3431
I3471
sS'OXOX-X-OX'
p3432
I3472
sS'-XOO----X'
p3433
I3473
sS'X--O--XOX'
p3434
I3474
sS'-XOX-O---'
p3435
I2529
sS'---OOX-XX'
p3436
I3476
sS'XOXO-OX-X'
p3437
I3477
sS'-OOXXO-X-'
p3438
I3478
sS'-X-O----X'
p3439
I2099
sS'XOXOXO---'
p3440
I4306
sS'X--OO-X-X'
p3441
I3480
sS'XXOO-XXO-'
p3442
I3481
sS'OXX---O-X'
p3443
I2419
sS'-XO---OX-'
p3444
I3482
sS'XXOOO--XX'
p3445
I2602
sS'-X-OXXO-O'
p3446
I3484
sS'OX-X----O'
p3447
I3485
sS'XO--X-X-O'
p3448
I3486
sS'-XOX-----'
p3449
I3487
sS'--OX-OX-X'
p3450
I3488
sS'XO--O-OXX'
p3451
I3313
sS'OX-OXOX--'
p3452
I4106
sS'-OO-X-XXO'
p3453
I509
sS'-XOO-X-X-'
p3454
I2860
sS'-X-X-O-O-'
p3455
I3492
sS'X--O-XO-X'
p3456
I4516
sS'XOOO--X-X'
p3457
I4120
sS'----XO--X'
p3458
I2676
sS'OXXXX-O-O'
p3459
I3495
sS'XXO-OXXOO'
p3460
I3496
sS'X---OX-OX'
p3461
I1944
sS'XOXX-OO--'
p3462
I3498
sS'O---OX-X-'
p3463
I3499
sS'OX-X--OXO'
p3464
I3500
sS'--O--X-X-'
p3465
I3501
sS'X-O-XX--O'
p3466
I2751
sS'X----X-O-'
p3467
I2756
sS'----OXO-X'
p3468
I2764
sS'OXO---X-X'
p3469
I2767
sS'-OO-XXXOX'
p3470
I3506
sS'-XXXOOX-O'
p3471
I2104
sS'OOXO-XXX-'
p3472
I69
sS'X-XOO--OX'
p3473
I3509
sS'-X-XOOXXO'
p3474
I3510
sS'X-XO-O-XO'
p3475
I3511
sS'XXO-O-X--'
p3476
I1553
sS'O-OXXOX-X'
p3477
I3513
sS'X-O--OX--'
p3478
I1542
sS'OX---X-OX'
p3479
I2288
sS'O--XO--X-'
p3480
I3514
sS'-XO-X----'
p3481
I3515
sS'---O-XO-X'
p3482
I1239
sS'-X-O--X-O'
p3483
I3517
sS'X----OOXX'
p3484
I2863
sS'XO-XO----'
p3485
I3519
sS'-O--XX-OX'
p3486
I2876
sS'-XX-OOXO-'
p3487
I2884
sS'X---OXOX-'
p3488
I3522
sS'--OOXXXOX'
p3489
I3523
sS'-OX-XOOXX'
p3490
I4344
sS'X-XX-OOXO'
p3491
I3524
sS'-XO---XOX'
p3492
I3525
sS'O-O-XX-X-'
p3493
I1852
sS'OXO----X-'
p3494
I3527
sS'-XO-O-XOX'
p3495
I3528
sS'O-X--O--X'
p3496
I3529
sS'XO-X--OOX'
p3497
I3613
sS'-X-O--X--'
p3498
I3531
sS'--OOXXXO-'
p3499
I3532
sS'-XO-X---O'
p3500
I3533
sS'---OOXXX-'
p3501
I3534
sS'XOOO-XXOX'
p3502
I3483
sS'OXO----XX'
p3503
I3536
sS'OXO--XX-O'
p3504
I3537
sS'O--X----X'
p3505
I1347
sS'X----OOX-'
p3506
I3539
sS'O--XO--XX'
p3507
I3540
sS'-X--XOXOO'
p3508
I3615
sS'-XX-OOXOX'
p3509
I3541
sS'-O--XX-O-'
p3510
I3542
sS'XOXX---OO'
p3511
I2899
sS'OX--OXXO-'
p3512
I2314
sS'--O--X-XO'
p3513
I3545
sS'O-OXXOX--'
p3514
I3073
sS'X----X-OO'
p3515
I3547
sS'-OXXXOOXO'
p3516
I2640
sS'XX--OO-XO'
p3517
I3549
sS'XXO----OX'
p3518
I2570
sS'XOO----X-'
p3519
I3551
sS'-OO-XXXO-'
p3520
I2723
sS'OX---XOOX'
p3521
I1312
sS'O-XX-XOXO'
p3522
I3555
sS'OXO---X--'
p3523
I3556
sS'-OXXX-OOX'
p3524
I3557
sS'-XOO-X-XO'
p3525
I3558
sS'--O--XX-O'
p3526
I1781
sS'XXOX-OOOX'
p3527
I3560
sS'OXX-OOX--'
p3528
I3561
sS'O-O-XX-OX'
p3529
I3562
sS'XO-OO--XX'
p3530
I3563
sS'OX--OXXOX'
p3531
I3564
sS'-X-OOXO-X'
p3532
I3565
sS'X-O-O-XXO'
p3533
I4163
sS'--O-XXOXO'
p3534
I3221
sS'-O-O-X--X'
p3535
I3567
sS'OXXO--X--'
p3536
I3568
sS'--O-OXXX-'
p3537
I3240
sS'OX---O--X'
p3538
I3570
sS'XOX-X-OO-'
p3539
I580
sS'X-O-X-XO-'
p3540
I4130
sS'XOXO--O-X'
p3541
I3437
sS'-OO-X-X-X'
p3542
I3256
sS'-O--XXO-X'
p3543
I3575
sS'-O-X-X--O'
p3544
I3114
sS'X-XO---OX'
p3545
I3276
sS'X--X-O-OX'
p3546
I4264
sS'O-X-XXO--'
p3547
I3297
sS'X----O--X'
p3548
I2175
sS'-X-OO-XOX'
p3549
I3578
sS'X--OOXO-X'
p3550
I4356
sS'-OO-OXX-X'
p3551
I3580
sS'-X-O--OX-'
p3552
I3581
sS'XOXX-XO-O'
p3553
I4357
sS'OXX--OXXO'
p3554
I3582
sS'XOX---OOX'
p3555
I3287
sS'-XO------'
p3556
I3584
sS'X-X-O-OX-'
p3557
I4458
sS'OX-XXOO-X'
p3558
I3883
sS'XOOOXOXX-'
p3559
I3585
sS'OOX---XOX'
p3560
I3586
sS'-X-O--OXX'
p3561
I3587
sS'OX--O-OXX'
p3562
I3588
sS'-XX-OXO-O'
p3563
I3589
sS'-X-----XO'
p3564
I3843
sS'-XXOX-O-O'
p3565
I3590
sS'O-X-XXO-O'
p3566
I105
sS'-XO-----X'
p3567
I3592
sS'-XO-XOO-X'
p3568
I3593
sS'-OOOXX--X'
p3569
I1972
sS'X-XO---O-'
p3570
I3419
sS'OO---X--X'
p3571
I3427
sS'-OO-X-X--'
p3572
I992
sS'XOXOOX-X-'
p3573
I2490
sS'-OXX--XOO'
p3574
I2907
sS'XX-X--O-O'
p3575
I3600
sS'X-O-XOOX-'
p3576
I3601
sS'X-OOX----'
p3577
I3603
sS'X-OOO-X-X'
p3578
I3604
sS'--O--XX--'
p3579
I3605
sS'X-O-X--XO'
p3580
I1510
sS'-O--X-OX-'
p3581
I3606
sS'-XO-XO-OX'
p3582
I2489
sS'XOO--XOX-'
p3583
I4359
sS'OO--X-OXX'
p3584
I3608
sS'--O-XXOX-'
p3585
I3610
sS'-X--X-XOO'
p3586
I1844
sS'--X-O-O-X'
p3587
I3612
sS'OXXO--X-O'
p3588
I3530
sS'XO-X-X-O-'
p3589
I4360
sS'O-----XOX'
p3590
I3945
sS'OXX-O-OX-'
p3591
I3036
sS'--O-OXXXO'
p3592
I1665
sS'OXX-OOX-X'
p3593
I3617
sS'-OX-O-XX-'
p3594
I3618
sS'--XOX-O--'
p3595
I1028
sS'XOO---X-X'
p3596
I3620
sS'XXOOOX-OX'
p3597
I3621
sS'X-OX--O--'
p3598
I4293
sS'X-----O--'
p3599
I3611
sS'-OXX---XO'
p3600
I760
sS'OXXXOO--X'
p3601
I3624
sS'-XX-OX-O-'
p3602
I4362
sS'-XOOXOXOX'
p3603
I3625
sS'-OXO-XOX-'
p3604
I2428
sS'OXOOX-XOX'
p3605
I4363
sS'O-XO-XX-O'
p3606
I3628
sS'---X--X-O'
p3607
I3629
sS'O--XOX--X'
p3608
I3630
sS'-OO--XXXO'
p3609
I3631
sS'XO----XXO'
p3610
I3632
sS'XOO-X--XO'
p3611
I2814
sS'-OXXO-OX-'
p3612
I3633
sS'-------XO'
p3613
I3635
sS'OOXXO-OXX'
p3614
I3637
sS'--XO-XX-O'
p3615
I3638
sS'O-X----OX'
p3616
I3639
sS'-OX----OX'
p3617
I2916
sS'-XOO-XXO-'
p3618
I3641
sS'-X-XOOXO-'
p3619
I3642
sS'XOXX--OXO'
p3620
I3643
sS'-XXO-X-O-'
p3621
I3644
sS'XXO-O----'
p3622
I3645
sS'--OXOX-X-'
p3623
I3646
sS'-XOXO-XXO'
p3624
I3317
sS'X--X-X-OO'
p3625
I3648
sS'-XOO-XXOX'
p3626
I3649
sS'-XXOX---O'
p3627
I3650
sS'OXXXO-XO-'
p3628
I3652
sS'--XXXO-O-'
p3629
I3653
sS'OOXOOXXX-'
p3630
I3654
sS'--XO--XXO'
p3631
I3655
sS'-OO---XX-'
p3632
I3656
sS'-X-OXXOOX'
p3633
I3692
sS'-OXXO-OXX'
p3634
I2413
sS'X---X-O--'
p3635
I3008
sS'-OXX-X-OO'
p3636
I3658
sS'XO--OO-XX'
p3637
I3659
sS'-XXO-X-OO'
p3638
I3660
sS'--OXOX-XO'
p3639
I3661
sS'-OX-O-XXO'
p3640
I3662
sS'OXXX--XOO'
p3641
I3663
sS'-OXX-O-XO'
p3642
I3664
sS'-XOXO---X'
p3643
I3665
sS'-OX--XOX-'
p3644
I3666
sS'-OX-X-OOX'
p3645
I3667
sS'O--XOX---'
p3646
I3668
sS'XOO---X--'
p3647
I3669
sS'XOXOO--X-'
p3648
I3670
sS'OX-XO-O-X'
p3649
I3671
sS'-XXX-OOXO'
p3650
I3672
sS'-OOX-X--X'
p3651
I2230
sS'-OO--XXX-'
p3652
I3675
sS'O-OXO-XX-'
p3653
I250
sS'XXOX--O-O'
p3654
I3376
sS'OO-XX--XO'
p3655
I3677
sS'-X-XXO--O'
p3656
I3678
sS'O----X--X'
p3657
I3679
sS'XOXOXXO--'
p3658
I1549
sS'XOXOOX---'
p3659
I3935
sS'XX---O-OX'
p3660
I3681
sS'X-----OXO'
p3661
I3682
sS'OXXXO-OOX'
p3662
I3683
sS'OOXX--X-O'
p3663
I2926
sS'----X-OOX'
p3664
I2835
sS'XX----OO-'
p3665
I3687
sS'-X--X-OOX'
p3666
I3688
sS'--XOXOOXX'
p3667
I3689
sS'--XOO-OXX'
p3668
I3690
sS'-XXO--OOX'
p3669
I3691
sS'O--X--XO-'
p3670
I2383
sS'O--XOX-X-'
p3671
I1986
sS'OX-O-OX-X'
p3672
I3640
sS'OX--O--XX'
p3673
I3694
sS'--XOO-XX-'
p3674
I2287
sS'O-XX-X-OO'
p3675
I3696
sS'OX-X--O--'
p3676
I3697
sS'XOX---O-X'
p3677
I3698
sS'-XOOOX-XX'
p3678
I3699
sS'-OOXX-XO-'
p3679
I3700
sS'XX-XO-O-O'
p3680
I3701
sS'XO-OX--X-'
p3681
I1639
sS'-X-O-O-XX'
p3682
I2144
sS'O-XO-OXX-'
p3683
I3703
sS'O-XXOX---'
p3684
I1823
sS'X----OXOX'
p3685
I3705
sS'OXXXOO---'
p3686
I3676
sS'-OOXX-XOX'
p3687
I3706
sS'-XOOOX-X-'
p3688
I3707
sS'OOXXOX---'
p3689
I3708
sS'X----OXO-'
p3690
I3709
sS'O-XX-X-O-'
p3691
I3710
sS'-O-OXO-XX'
p3692
I3711
sS'OXXX----O'
p3693
I3712
sS'XX-XO-O--'
p3694
I3713
sS'OXXX-O--O'
p3695
I3714
sS'OO-OXX-X-'
p3696
I2365
sS'O--X--XOX'
p3697
I539
sS'XOX---O--'
p3698
I3717
sS'OXX-OXOX-'
p3699
I3718
sS'-X-OOXXO-'
p3700
I2147
sS'O-OX-X-OX'
p3701
I1127
sS'XO-----X-'
p3702
I2148
sS'-X--X-OO-'
p3703
I3722
sS'XX----OOX'
p3704
I3723
sS'OO-XX-X-O'
p3705
I811
sS'--XX--XOO'
p3706
I3725
sS'X-----OX-'
p3707
I3726
sS'XO-O----X'
p3708
I4039
sS'--XOXOOX-'
p3709
I3727
sS'OX-XOOOXX'
p3710
I3728
sS'OOXX--X--'
p3711
I3729
sS'XX-XO-OXO'
p3712
I3730
sS'O----X---'
p3713
I3731
sS'XX---O-O-'
p3714
I3732
sS'XO---XOXO'
p3715
I3733
sS'OXOXX-OOX'
p3716
I3734
sS'---X-OO-X'
p3717
I3735
sS'-OXXOO-X-'
p3718
I4491
sS'-X-X-OX-O'
p3719
I3736
sS'-O-O--X-X'
p3720
I3737
sS'X-XO-OO-X'
p3721
I4330
sS'-OXXXOO--'
p3722
I3738
sS'XO-XXO-O-'
p3723
I3739
sS'--XOO--XX'
p3724
I2465
sS'O-XXO--OX'
p3725
I3741
sS'XXO--XO--'
p3726
I3742
sS'XO--O-X-X'
p3727
I3999
sS'--OX-----'
p3728
I130
sS'OX-XX--OO'
p3729
I3744
sS'-OXXX---O'
p3730
I3745
sS'XO--OXX-O'
p3731
I3746
sS'XO--X----'
p3732
I3747
sS'--OX--XOX'
p3733
I2304
sS'-O-X-XO-X'
p3734
I3749
sS'O--OXO-XX'
p3735
I2935
sS'-OO-XXO-X'
p3736
I2153
sS'O-X-XOO-X'
p3737
I4413
sS'XOOXOX-X-'
p3738
I3752
sS'-OXXOO--X'
p3739
I3753
sS'X--XOXOXO'
p3740
I3756
sS'----XXOXO'
p3741
I1738
sS'-O-OX--X-'
p3742
I3758
sS'XXOXOO-OX'
p3743
I4388
sS'---XX-XOO'
p3744
I3760
sS'-O-O-X-X-'
p3745
I3761
sS'OX-O-X--X'
p3746
I3762
sS'-O--XXOX-'
p3747
I4389
sS'OXX-XO--O'
p3748
I25
sS'XO--X--XO'
p3749
I3766
sS'OXOOX-X-X'
p3750
I3767
sS'-X-OOXX--'
p3751
I3768
sS'OOXOXX-X-'
p3752
I3769
sS'OOXOX---X'
p3753
I3770
sS'XOXXOO-XO'
p3754
I3771
sS'----XXO-O'
p3755
I3772
sS'O-OX----X'
p3756
I3773
sS'XOO-X-XXO'
p3757
I3774
sS'OXOOX-X--'
p3758
I3775
sS'OXOXO--XX'
p3759
I3776
sS'---XO--OX'
p3760
I3777
sS'XOO--X-XO'
p3761
I3779
sS'XOOX-X-XO'
p3762
I3783
sS'-OX--O--X'
p3763
I3784
sS'OX-X---OX'
p3764
I3785
sS'OXX-XO---'
p3765
I3786
sS'OOXOXX-XO'
p3766
I3787
sS'----XXOOX'
p3767
I3788
sS'-X-OOXX-O'
p3768
I3789
sS'OX-O-X---'
p3769
I3790
sS'-O-O-X-XX'
p3770
I3791
sS'XOXXOO-X-'
p3771
I3792
sS'--OX-OXOX'
p3772
I176
sS'O-XXX-OXO'
p3773
I1975
sS'XXO-OXX-O'
p3774
I3794
sS'---XXOOOX'
p3775
I3795
sS'XX--OOXXO'
p3776
I3796
sS'-O-X---XO'
p3777
I3797
sS'----XOXXO'
p3778
I214
sS'-OXX-O-OX'
p3779
I3800
sS'X-OOXXO--'
p3780
I3801
sS'XO--X---O'
p3781
I3802
sS'X-OO-XX-O'
p3782
I3803
sS'OXX-O-X--'
p3783
I3344
sS'OXX-O-OXX'
p3784
I261
sS'X---OXOXO'
p3785
I2943
sS'--OX----X'
p3786
I3808
sS'-OXXX-OO-'
p3787
I3266
sS'XX---XOO-'
p3788
I3810
sS'--X-X-O-O'
p3789
I3812
sS'XX-X-OO--'
p3790
I3813
sS'OXO--O-XX'
p3791
I2528
sS'-XXO-OXO-'
p3792
I318
sS'--O-XX-O-'
p3793
I3816
sS'-XX-XO-OO'
p3794
I329
sS'OXOOXX--X'
p3795
I3818
sS'-X-O-X--O'
p3796
I3819
sS'--X--XOXO'
p3797
I3820
sS'-O--XX--O'
p3798
I3821
sS'O---XXXO-'
p3799
I867
sS'-O-X-O-X-'
p3800
I3823
sS'XX-OXOO--'
p3801
I3824
sS'XOX--OOX-'
p3802
I3825
sS'--X-OX-XO'
p3803
I3826
sS'OO--OX-XX'
p3804
I2826
sS'-O---XOXX'
p3805
I3828
sS'-XX--XO-O'
p3806
I2945
sS'-X--OXX-O'
p3807
I3750
sS'-OO-XXOX-'
p3808
I2271
sS'XX-OX--OO'
p3809
I3832
sS'O-O--X--X'
p3810
I3363
sS'--XXO-OX-'
p3811
I4402
sS'-XXXXOOO-'
p3812
I3535
sS'-XXXOOXOO'
p3813
I3835
sS'OO-OXXXX-'
p3814
I3836
sS'XOOX-XO-X'
p3815
I3252
sS'XO-OXX--O'
p3816
I3838
sS'XO--OXOX-'
p3817
I3740
sS'OOX-O-XX-'
p3818
I454
sS'--X--X-OO'
p3819
I3840
sS'OX-X-O-X-'
p3820
I3841
sS'-OOXX--X-'
p3821
I463
sS'-OOOXXXX-'
p3822
I1235
sS'OX-OXXXOO'
p3823
I3844
sS'O----XXXO'
p3824
I478
sS'--XXO---O'
p3825
I481
sS'-OX-OOX-X'
p3826
I486
sS'-X-O-XX-O'
p3827
I3848
sS'O-O-XXOX-'
p3828
I3636
sS'XX-OOXOX-'
p3829
I3850
sS'XX-OX--O-'
p3830
I3851
sS'OXOX--OXX'
p3831
I3852
sS'-X-XXOO--'
p3832
I3853
sS'-XX---XOO'
p3833
I3854
sS'O-O---X-X'
p3834
I3651
sS'-OXO-X---'
p3835
I3856
sS'O-X-O-OXX'
p3836
I2613
sS'O---XXO-X'
p3837
I3858
sS'O--OOXX-X'
p3838
I543
sS'XO-OXX---'
p3839
I3860
sS'--X--X-O-'
p3840
I3861
sS'---XO-XXO'
p3841
I558
sS'-OO-XXOXX'
p3842
I3863
sS'OX-XXO---'
p3843
I2168
sS'-OOOXXXXO'
p3844
I3865
sS'O--XOXO-X'
p3845
I3994
sS'O--XXO---'
p3846
I3866
sS'-OOXX--XO'
p3847
I3504
sS'--XXO----'
p3848
I247
sS'--XO-OXXO'
p3849
I522
sS'O-OXX-XXO'
p3850
I584
sS'X-XOO-XO-'
p3851
I3871
sS'-O-X-O-XX'
p3852
I3872
sS'OXO--XXXO'
p3853
I3873
sS'-XOXXOXO-'
p3854
I3874
sS'-OOO-X-XX'
p3855
I1987
sS'XX---OXO-'
p3856
I3161
sS'-O-X---OX'
p3857
I3878
sS'-O-X-XOOX'
p3858
I3879
sS'-XX-XO-O-'
p3859
I3880
sS'-O--XX---'
p3860
I3881
sS'O-OOX--XX'
p3861
I999
sS'-XOOXXX-O'
p3862
I650
sS'XOOX----X'
p3863
I4456
sS'OX-OXX-OX'
p3864
I4410
sS'OXO-X-XO-'
p3865
I4093
sS'X-XO--O--'
p3866
I3885
sS'XXO--XOXO'
p3867
I4162
sS'-X---XOXO'
p3868
I684
sS'-XXO-OXOX'
p3869
I687
sS'XOXOXOOX-'
p3870
I3888
sS'-XO-OX--X'
p3871
I172
sS'XOXXOXO-O'
p3872
I3890
sS'O-O-XO-XX'
p3873
I2138
sS'O---X-X--'
p3874
I3892
sS'X-X-XOO--'
p3875
I3893
sS'------X-O'
p3876
I1091
sS'OXXOXO--X'
p3877
I3896
sS'X-O----XO'
p3878
I3897
sS'OO---XX-X'
p3879
I3898
sS'-XOXO--X-'
p3880
I762
sS'XX--O--XO'
p3881
I3096
sS'OOXXOO-XX'
p3882
I3070
sS'---O-X---'
p3883
I3901
sS'XOOOX--X-'
p3884
I3061
sS'--XO---OX'
p3885
I3902
sS'OOX---X-X'
p3886
I529
sS'-XXO--X-O'
p3887
I3904
sS'--O-XX---'
p3888
I3905
sS'O-O---XX-'
p3889
I2906
sS'X-OXX--OO'
p3890
I2173
sS'-XX---O--'
p3891
I3908
sS'-----OXOX'
p3892
I3909
sS'--OXXO--X'
p3893
I3910
sS'--XOX-O-X'
p3894
I3912
sS'-OXOX--OX'
p3895
I856
sS'--X-OXXOO'
p3896
I3915
sS'O-XXXOO--'
p3897
I3916
sS'XXO-OOX--'
p3898
I3917
sS'---XO-XOX'
p3899
I3918
sS'O---XX-OX'
p3900
I3261
sS'OO---X-X-'
p3901
I428
sS'OX-O-X-XO'
p3902
I2187
sS'OXX-XXOO-'
p3903
I3922
sS'-O-----X-'
p3904
I1386
sS'--OX-X-OX'
p3905
I3924
sS'-OXXO----'
p3906
I927
sS'O--XXOX--'
p3907
I3926
sS'XXO-OOX-X'
p3908
I3927
sS'O---XX---'
p3909
I3928
sS'-O---O-XX'
p3910
I3929
sS'OXX-X--O-'
p3911
I3134
sS'-O-----XX'
p3912
I3931
sS'--O--XXOX'
p3913
I3932
sS'OX-XOXXO-'
p3914
I959
sS'OO---X-XX'
p3915
I963
sS'--X-OXXO-'
p3916
I969
sS'-XO--X-O-'
p3917
I3936
sS'O-X-OXX--'
p3918
I3937
sS'-OXXOX-XO'
p3919
I3938
sS'OO----X-X'
p3920
I3939
sS'-X-OO---X'
p3921
I998
sS'XOO-X----'
p3922
I3941
sS'OX-OX--OX'
p3923
I783
sS'---O-X--X'
p3924
I3944
sS'XOXXOXO--'
p3925
I3946
sS'X-X--XOO-'
p3926
I3607
sS'OXO--X---'
p3927
I3948
sS'-O-XX--O-'
p3928
I1656
sS'OOXX-XO--'
p3929
I3674
sS'-XXXOXO-O'
p3930
I1052
sS'X-O-OX-OX'
p3931
I3952
sS'OOX---X--'
p3932
I3953
sS'-XOXO--XO'
p3933
I3954
sS'-O---OX-X'
p3934
I3955
sS'---XO-X--'
p3935
I678
sS'O---OX-XX'
p3936
I3957
sS'OOXXX----'
p3937
I3993
sS'--XO-X-XO'
p3938
I1108
sS'OX--X-O--'
p3939
I3959
sS'OXXOXO---'
p3940
I3960
sS'OO---XX--'
p3941
I1124
sS'-XXOX--O-'
p3942
I3962
sS'X--O-OX-X'
p3943
I3963
sS'-X--OXXOO'
p3944
I3964
sS'-OXOXXOXO'
p3945
I3965
sS'--XO-XXOO'
p3946
I1255
sS'--OOXXO-X'
p3947
I3967
sS'--OO--X-X'
p3948
I1157
sS'-O-X-XOXO'
p3949
I1161
sS'XXOO-XX-O'
p3950
I3970
sS'---O---XX'
p3951
I1175
sS'O--OOXXX-'
p3952
I3972
sS'-XO--XOX-'
p3953
I3973
sS'-X-XOOOXX'
p3954
I3974
sS'O---X-XOX'
p3955
I3975
sS'O--XX-O-X'
p3956
I3976
sS'-O-XOX--X'
p3957
I4118
sS'----X-OXO'
p3958
I4150
sS'--X-XXOO-'
p3959
I3977
sS'XOXX-XOO-'
p3960
I3978
sS'XO-XX--O-'
p3961
I2966
sS'O-X-X-O--'
p3962
I3979
sS'X-OXOX---'
p3963
I3980
sS'XXOXXOO--'
p3964
I3981
sS'X----OXXO'
p3965
I1248
sS'OOX---XX-'
p3966
I1261
sS'XOX--XOO-'
p3967
I3984
sS'OO-XX-X--'
p3968
I3985
sS'--OO-X--X'
p3969
I3986
sS'O-XXXO-O-'
p3970
I3265
sS'OXOXX-O-X'
p3971
I3988
sS'--OX-O-X-'
p3972
I3989
sS'O---XX-XO'
p3973
I3990
sS'-XXOOXO--'
p3974
I1313
sS'O--O-X-X-'
p3975
I1317
sS'O---OXX--'
p3976
I2976
sS'X-XO-O-X-'
p3977
I3554
sS'X--O-X---'
p3978
I3475
sS'-X----O--'
p3979
I3996
sS'---X-X-OO'
p3980
I3997
sS'--OXO-X-X'
p3981
I3998
sS'OOX---XXO'
p3982
I1353
sS'O---OXX-X'
p3983
I4000
sS'-OXXX-OXO'
p3984
I4001
sS'XOXXO-O--'
p3985
I4430
sS'---XOXOOX'
p3986
I512
sS'-X----O-X'
p3987
I4004
sS'XO--XX--O'
p3988
I4005
sS'-OOXX-O-X'
p3989
I4006
sS'--OXO--X-'
p3990
I4007
sS'O--X-X-XO'
p3991
I2696
sS'O--XO-OXX'
p3992
I4009
sS'OX-XXOXOO'
p3993
I2191
sS'OXOXX-O--'
p3994
I4011
sS'XOOOX-X--'
p3995
I3247
sS'--OX-OXX-'
p3996
I4012
sS'---X-X-O-'
p3997
I4013
sS'---XOXO-X'
p3998
I4014
sS'OXXX-X-OO'
p3999
I3685
sS'X--OO-XOX'
p4000
I657
sS'O---X-XO-'
p4001
I4017
sS'--OXOX--X'
p4002
I953
sS'O--XX-O--'
p4003
I1226
sS'--XO-XXO-'
p4004
I4020
sS'X-----OOX'
p4005
I4021
sS'OX-X--XO-'
p4006
I3260
sS'-O-X-XOX-'
p4007
I1486
sS'OO-OX-XX-'
p4008
I3764
sS'XOX-OO-X-'
p4009
I2405
sS'X--O-OX--'
p4010
I4025
sS'-X-OXOXOX'
p4011
I4026
sS'---O---X-'
p4012
I2889
sS'X---OOX--'
p4013
I4028
sS'XOX-OX--O'
p4014
I4029
sS'-XOOO-XX-'
p4015
I3782
sS'OOX-XO-X-'
p4016
I4032
sS'O-OX-X-X-'
p4017
I1571
sS'---X--OXO'
p4018
I2045
sS'OO-XX--X-'
p4019
I4035
sS'X-X-XO--O'
p4020
I4036
sS'-O-OX-OXX'
p4021
I4037
sS'O-XXX--O-'
p4022
I4038
sS'O-O-X---X'
p4023
I1614
sS'OOX--XXO-'
p4024
I4040
sS'-X-XO----'
p4025
I4041
sS'OO-X-X-OX'
p4026
I1628
sS'X--OXO---'
p4027
I2912
sS'O-XX--OOX'
p4028
I4044
sS'---XO-X-O'
p4029
I4234
sS'OXX---OXO'
p4030
I4045
sS'XX-O-XO--'
p4031
I4046
sS'---OOX--X'
p4032
I2521
sS'-OOXXOXOX'
p4033
I4048
sS'O--XX--OX'
p4034
I4049
sS'O-XXOXOX-'
p4035
I3340
sS'----OXOXX'
p4036
I1946
sS'-OOXOXXXO'
p4037
I902
sS'X-O-X---O'
p4038
I1703
sS'-O--XXXOO'
p4039
I696
sS'XX-X-OO-O'
p4040
I3875
sS'-XO--XOXO'
p4041
I4024
sS'X--XOX-O-'
p4042
I4055
sS'X--XOXOO-'
p4043
I1603
sS'-X--OOOXX'
p4044
I294
sS'---X-XO-O'
p4045
I4057
sS'XX--OOXO-'
p4046
I4058
sS'O---X-OX-'
p4047
I4486
sS'O-OX--XOX'
p4048
I4059
sS'XO-XXO--O'
p4049
I4060
sS'-XO---X-O'
p4050
I4061
sS'OOX--X-XO'
p4051
I4062
sS'OXX--XO--'
p4052
I4063
sS'-O-XX-O--'
p4053
I4064
sS'X--OOX-X-'
p4054
I2200
sS'XX--OOXOX'
p4055
I4066
sS'-OOXOXXX-'
p4056
I1793
sS'--OXOX---'
p4057
I4068
sS'OO-X----X'
p4058
I4069
sS'X-X-OOX-O'
p4059
I4370
sS'XX----O-O'
p4060
I1809
sS'-O-XX-O-X'
p4061
I1814
sS'XO--OX---'
p4062
I1431
sS'O-XOXX--O'
p4063
I4283
sS'OX---X-XO'
p4064
I4074
sS'----OXOX-'
p4065
I1832
sS'X--XOX-OO'
p4066
I4077
sS'---X-XO--'
p4067
I4078
sS'-O-X-OXX-'
p4068
I2763
sS'-XO---X--'
p4069
I4080
sS'OOX--X-X-'
p4070
I4081
sS'OXOXXO--X'
p4071
I2309
sS'X-O-XX-OO'
p4072
I4083
sS'OXX--XO-O'
p4073
I4084
sS'O-OX-X-XO'
p4074
I4085
sS'-X--X-O-O'
p4075
I4086
sS'---X-OX--'
p4076
I4087
sS'---X--OX-'
p4077
I4088
sS'XOX-X---O'
p4078
I2985
sS'XX-XO-OO-'
p4079
I4090
sS'O-XXX--OO'
p4080
I4091
sS'-X-XO---O'
p4081
I4092
sS'-OXX-OO-X'
p4082
I64
sS'OOX-XO-XX'
p4083
I4094
sS'O-OXXOXOX'
p4084
I1584
sS'--OXOOX-X'
p4085
I4096
sS'O---XXOOX'
p4086
I4097
sS'X-XOXXO-O'
p4087
I4098
sS'--OXO---X'
p4088
I2420
sS'XX-O-XO-O'
p4089
I4100
sS'-XOXX-O--'
p4090
I1993
sS'OO-XXOXXO'
p4091
I4102
sS'----O-X--'
p4092
I4103
sS'---XX--O-'
p4093
I4104
sS'XX-O-XOOX'
p4094
I2206
sS'O-XO--XOX'
p4095
I2040
sS'OX-OXO--X'
p4096
I4107
sS'O-X--XO--'
p4097
I4108
sS'X---OXX-O'
p4098
I4109
sS'X--OXOXXO'
p4099
I4110
sS'-OX--XXOO'
p4100
I2062
sS'-X-OOX--X'
p4101
I2372
sS'XO--XOX-O'
p4102
I4193
sS'-O--XXOOX'
p4103
I4113
sS'----XOX--'
p4104
I4114
sS'----O--X-'
p4105
I4115
sS'OXOOOXX-X'
p4106
I2103
sS'X-O-X-XOO'
p4107
I4117
sS'O-----X--'
p4108
I3572
sS'OXXX-OXOO'
p4109
I2284
sS'-OOX--XXO'
p4110
I4008
sS'X-OX-O--X'
p4111
I2154
sS'OXXX--OO-'
p4112
I4176
sS'O-X--XOXO'
p4113
I545
sS'-OX-X-O--'
p4114
I3064
sS'-OO-X--X-'
p4115
I4123
sS'-OO-XX--X'
p4116
I2176
sS'XOX-OOX--'
p4117
I2591
sS'-OX-X--OX'
p4118
I2181
sS'-O-X--XO-'
p4119
I1690
sS'-O--X-XXO'
p4120
I4128
sS'--OOX---X'
p4121
I4129
sS'-XOXOX-OX'
p4122
I3398
sS'-OX-X-O-X'
p4123
I2209
sS'--XX-O-O-'
p4124
I3914
sS'-OO-X--XX'
p4125
I4132
sS'XO--OOX-X'
p4126
I4133
sS'XXOX-O---'
p4127
I4134
sS'-OX-X--O-'
p4128
I2988
sS'-XO-XOXO-'
p4129
I4136
sS'-O-X--XOX'
p4130
I888
sS'O-X--XOX-'
p4131
I2262
sS'--OXXOX--'
p4132
I4139
sS'-O--OXXX-'
p4133
I3798
sS'X-OX-O---'
p4134
I4141
sS'XOXX----O'
p4135
I4142
sS'O-OXXO--X'
p4136
I2305
sS'XXOX-OO-X'
p4137
I2327
sS'-XOXX-O-O'
p4138
I2330
sS'-O--X--OX'
p4139
I4148
sS'OO-XXOXX-'
p4140
I4149
sS'OXO-OX-XX'
p4141
I3887
sS'---XX--OO'
p4142
I4151
sS'--O-----X'
p4143
I4152
sS'O---XOXXO'
p4144
I4153
sS'-OXX--OX-'
p4145
I4154
sS'X-XO-XO-O'
p4146
I4155
sS'OXOXOOXX-'
p4147
I3940
sS'O--XOXXOX'
p4148
I1612
sS'----O-X-X'
p4149
I4158
sS'O-O-X-XX-'
p4150
I3280
sS'-OX--XXO-'
p4151
I2398
sS'-XOO-X---'
p4152
I4161
sS'----XOX-O'
p4153
I1045
sS'OXX--OX--'
p4154
I3440
sS'-OXO--X-X'
p4155
I3614
sS'--O-XX-OX'
p4156
I3634
sS'O----XXO-'
p4157
I4076
sS'-OO---X-X'
p4158
I4166
sS'XXOO-O-XX'
p4159
I4167
sS'XOOOXX---'
p4160
I4168
sS'XO-XOO-XX'
p4161
I4169
sS'OO-X--X-X'
p4162
I4170
sS'O-----X-X'
p4163
I4171
sS'--X------'
p4164
I4144
sS'XOXX-OOX-'
p4165
I4173
sS'--XO-OX--'
p4166
I4174
sS'OX-OXXX-O'
p4167
I4175
sS'OX----XOX'
p4168
I2501
sS'-X-O-X-O-'
p4169
I4177
sS'OX--O---X'
p4170
I692
sS'XXOOOX---'
p4171
I4179
sS'--OXO-X--'
p4172
I2518
sS'-OOXX---X'
p4173
I4181
sS'-X-OXX--O'
p4174
I2403
sS'-OX---XO-'
p4175
I4183
sS'--X--X--O'
p4176
I4185
sS'--OO-X-X-'
p4177
I4186
sS'XOXXXO-O-'
p4178
I4463
sS'OO---XXXO'
p4179
I4188
sS'OXXXOXO--'
p4180
I2467
sS'XOX--O--X'
p4181
I4190
sS'-XOOOXX-X'
p4182
I4191
sS'O---X--XO'
p4183
I4464
sS'-OX-OXOX-'
p4184
I1089
sS'-XXX-OO-O'
p4185
I4195
sS'--OXX-OOX'
p4186
I4196
sS'XOX--O---'
p4187
I4197
sS'OOX-XOOXX'
p4188
I4198
sS'-XXO-XXOO'
p4189
I4199
sS'OO--OXXX-'
p4190
I2675
sS'O-XXO--X-'
p4191
I4201
sS'---XOO--X'
p4192
I4202
sS'OXO-XX--O'
p4193
I4203
sS'O--XX-OX-'
p4194
I4204
sS'X-OXX-OO-'
p4195
I2711
sS'XX-O--OOX'
p4196
I2266
sS'-OX---XOX'
p4197
I131
sS'-O-X-XX-O'
p4198
I1337
sS'O-O-XX--X'
p4199
I4208
sS'OX--OX-OX'
p4200
I4209
sS'XXOO--OX-'
p4201
I2356
sS'--OO-X-XX'
p4202
I1654
sS'X-X-OXXOO'
p4203
I4213
sS'-X-O-X-OX'
p4204
I4214
sS'XXOOOX--X'
p4205
I4215
sS'X-O-O-XX-'
p4206
I4216
sS'--XO-OX-X'
p4207
I4217
sS'XO---XX-O'
p4208
I3489
sS'XOO--OXX-'
p4209
I3943
sS'X-O----OX'
p4210
I4219
sS'--OX-O--X'
p4211
I2799
sS'O-X--OXX-'
p4212
I2382
sS'-----X-XO'
p4213
I4222
sS'--X-----O'
p4214
I3291
sS'O--OXOXX-'
p4215
I2827
sS'XXOO--XXO'
p4216
I4225
sS'XXOO-O-X-'
p4217
I4226
sS'-OXO--X--'
p4218
I4227
sS'O-O-XXOXX'
p4219
I4228
sS'OOXX-OXOX'
p4220
I4229
sS'XX-X-OOXO'
p4221
I4230
sS'--XXOO-X-'
p4222
I2865
sS'XO-XOO-X-'
p4223
I2871
sS'O--X-XX-O'
p4224
I1949
sS'XXOO--X-O'
p4225
I3869
sS'X-X-XO-OO'
p4226
I4471
sS'OXO-OXXX-'
p4227
I4236
sS'-OXOX---X'
p4228
I972
sS'OO----XX-'
p4229
I1375
sS'--OX--X--'
p4230
I4239
sS'O--OXXXOX'
p4231
I4240
sS'OXX-O---X'
p4232
I1642
sS'O-XOOXX--'
p4233
I2920
sS'---O--OXX'
p4234
I2922
sS'XOOXXOOX-'
p4235
I4244
sS'----O-XOX'
p4236
I2088
sS'-XOX-O-OX'
p4237
I3574
sS'X-O--OOXX'
p4238
I4247
sS'-OXX-OXXO'
p4239
I4248
sS'-XOX-O-X-'
p4240
I2963
sS'O--XO---X'
p4241
I4250
sS'--OXXOO-X'
p4242
I3206
sS'-O---OXX-'
p4243
I2970
sS'-XO-XX--O'
p4244
I709
sS'OOXXXO--X'
p4245
I4254
sS'X-OO-X-X-'
p4246
I4255
sS'-X-O-OOXX'
p4247
I3719
sS'-X-OX-O--'
p4248
I4256
sS'XO--X-OXO'
p4249
I4157
sS'X---O-XOX'
p4250
I4258
sS'-XOOOX--X'
p4251
I3013
sS'-XOX-OOX-'
p4252
I4260
sS'-OX--OXXO'
p4253
I4261
sS'X-X-OXOO-'
p4254
I3031
sS'-O-O-XX--'
p4255
I4263
sS'O-XOXX---'
p4256
I1412
sS'X--XOO-OX'
p4257
I4265
sS'-OXOOXX--'
p4258
I4266
sS'-X-XXOOO-'
p4259
I3434
sS'-OOXOX-XX'
p4260
I4268
sS'X---OX-XO'
p4261
I3069
sS'-XO-XO---'
p4262
I4270
sS'----X-O--'
p4263
I4271
sS'X--XOOO-X'
p4264
I4272
sS'-OXOO-X-X'
p4265
I3086
sS'XXOX---O-'
p4266
I4274
sS'X--X-O-O-'
p4267
I4275
sS'---OX-XXO'
p4268
I3103
sS'-OOXOX-X-'
p4269
I4277
sS'----X-O-X'
p4270
I4278
sS'-XO-XO--X'
p4271
I4279
sS'--X--O-OX'
p4272
I4280
sS'OX-XX-OOX'
p4273
I4281
sS'-OX--OXX-'
p4274
I1318
sS'---OX--X-'
p4275
I3686
sS'-X-OX-O-X'
p4276
I4284
sS'OOXXXO---'
p4277
I4285
sS'--XXXOOXO'
p4278
I4286
sS'---O-X-OX'
p4279
I4287
sS'X---O-XO-'
p4280
I4288
sS'X----XOXO'
p4281
I4289
sS'XO--XOOX-'
p4282
I3724
sS'OXOXXO---'
p4283
I2321
sS'OXX--OOX-'
p4284
I2237
sS'O--X-O--X'
p4285
I2588
sS'O-X-XXOO-'
p4286
I2965
sS'XOXX-OOXO'
p4287
I4221
sS'OO-O-XXX-'
p4288
I1062
sS'X-XO--XOO'
p4289
I4297
sS'-OXOX----'
p4290
I4298
sS'XX-XXOOO-'
p4291
I4299
sS'X--O-X-XO'
p4292
I4300
sS'X---OX-O-'
p4293
I4301
sS'O--X--O-X'
p4294
I4252
sS'O-XXO---X'
p4295
I2598
sS'X-X-XOOXO'
p4296
I4303
sS'XOO-XO-X-'
p4297
I4304
sS'XX--XO--O'
p4298
I2726
sS'OX--OOXX-'
p4299
I3306
sS'O---O--XX'
p4300
I4307
sS'OO-XX-OX-'
p4301
I2543
sS'XO-X-X-OO'
p4302
I4309
sS'--X-X--OO'
p4303
I4310
sS'-XX-OX-OO'
p4304
I4311
sS'---X-X--O'
p4305
I3359
sS'--O-X-X-O'
p4306
I4313
sS'O-XX--OX-'
p4307
I4314
sS'-X-O-XOXO'
p4308
I4315
sS'--XO-X--O'
p4309
I4316
sS'X-X-OOX--'
p4310
I4317
sS'O--X-OOXX'
p4311
I4318
sS'XO--O---X'
p4312
I3254
sS'X---XO-O-'
p4313
I4319
sS'O-O-XXX--'
p4314
I4320
sS'X-OOXXOXO'
p4315
I4321
sS'OOXX-----'
p4316
I4322
sS'-O-XXOOXX'
p4317
I4323
sS'-XX-O-OOX'
p4318
I2541
sS'-OXO--OXX'
p4319
I4325
sS'--XXO-O-X'
p4320
I2699
sS'-OO-XX---'
p4321
I4327
sS'-XO--XX-O'
p4322
I4328
sS'---O-XX-O'
p4323
I3602
sS'OO--X--XX'
p4324
I2850
sS'-XOO--XOX'
p4325
I4331
sS'-XXX---OO'
p4326
I4332
sS'O-XXXOOXO'
p4327
I4333
sS'--X-XOOOX'
p4328
I4334
sS'X--OXO-XO'
p4329
I4053
sS'-XX-OOXXO'
p4330
I4335
sS'X-XXO--O-'
p4331
I725
sS'-OX-XOOX-'
p4332
I4337
sS'OXOX---X-'
p4333
I4338
sS'---OXX-XO'
p4334
I4339
sS'O---OXXX-'
p4335
I4340
sS'-OXX-X--O'
p4336
I4341
sS'-OOXO--XX'
p4337
I4342
sS'X-OOXXOX-'
p4338
I4343
sS'O--XXO-XO'
p4339
I3451
sS'XXO--X-O-'
p4340
I4345
sS'OOXXO-X--'
p4341
I3267
sS'-OX--XO--'
p4342
I4346
sS'---O-XX--'
p4343
I4347
sS'XOXO-X-XO'
p4344
I3143
sS'-O-XXOOX-'
p4345
I3552
sS'-XXOX-O--'
p4346
I4349
sS'-XXO-OXXO'
p4347
I4350
sS'O-XXXOOX-'
p4348
I4351
sS'OXX--XOO-'
p4349
I4352
sS'XO-OX----'
p4350
I4353
sS'OO--X--X-'
p4351
I4354
sS'---OXXX-O'
p4352
I3778
sS'OXOX---XO'
p4353
I3579
sS'-XOXX--OO'
p4354
I2683
sS'-XO-X-XOO'
p4355
I728
sS'-X-XO--XO'
p4356
I4056
sS'X--OXO-X-'
p4357
I4072
sS'X-OOX-X-O'
p4358
I4121
sS'OX-OOXX--'
p4359
I4361
sS'XOX-OX-XO'
p4360
I2252
sS'--X-X--O-'
p4361
I3627
sS'OXX-O--OX'
p4362
I4364
sS'OO-XX-OXX'
p4363
I4365
sS'OXO-XO--X'
p4364
I4366
sS'--O-X-X--'
p4365
I4367
sS'O-XX--OXO'
p4366
I4368
sS'-XX-O--XO'
p4367
I4369
sS'-XOX-O--X'
p4368
I3469
sS'O-X---XXO'
p4369
I1483
sS'XXOO-OXOX'
p4370
I3032
sS'---X-XOXO'
p4371
I4372
sS'-XXX-O-OO'
p4372
I4373
sS'O-XOX--XO'
p4373
I3877
sS'OX---X---'
p4374
I4375
sS'-OOX-XXOX'
p4375
I3987
sS'--O--X--X'
p4376
I4377
sS'O--XXO-OX'
p4377
I4378
sS'X-OO--X--'
p4378
I3087
sS'OO--XOXX-'
p4379
I4380
sS'--OOXXXXO'
p4380
I2443
sS'-OOXO-XX-'
p4381
I2032
sS'XOXXO-O-X'
p4382
I4383
sS'OXXO---X-'
p4383
I4384
sS'X-O-OXXXO'
p4384
I3375
sS'-X-OO-OXX'
p4385
I4386
sS'OO--X-X--'
p4386
I4387
sS'-OOX--XX-'
p4387
I4429
sS'XO-X-XOXO'
p4388
I3759
sS'--X-XO---'
p4389
I2257
sS'OO-XX----'
p4390
I1351
sS'X-O-XO-X-'
p4391
I4391
sS'X-XO-XO--'
p4392
I3720
sS'--X-XOOXO'
p4393
I4393
sS'OX-X-OO-X'
p4394
I2258
sS'XXOO-XOX-'
p4395
I4395
sS'O--XXOX-O'
p4396
I4396
sS'XX-X-O-OO'
p4397
I4397
sS'X-O-O-X--'
p4398
I4398
sS'XOO-OX--X'
p4399
I4399
sS'-XOXX-OOX'
p4400
I2782
sS'O-OX--XXO'
p4401
I3827
sS'XX-O-OOX-'
p4402
I4355
sS'OOX-XX-O-'
p4403
I3702
sS'-O--XOXOX'
p4404
I4403
sS'-OX---XXO'
p4405
I840
sS'O---XO--X'
p4406
I3859
sS'X-OX-X--O'
p4407
I4406
sS'OX--XOX-O'
p4408
I3949
sS'-XX-X-O-O'
p4409
I4407
sS'OXXXXO-OO'
p4410
I4408
sS'XXOXO--OX'
p4411
I4073
sS'----OXXO-'
p4412
I3884
sS'-OOOX-XX-'
p4413
I4411
sS'O---OXOXX'
p4414
I3894
sS'OO-X--OXX'
p4415
I3754
sS'XO---X-XO'
p4416
I3479
sS'XX-OO--X-'
p4417
I4501
sS'-OO-OX-XX'
p4418
I4415
sS'XX-X-O-O-'
p4419
I4416
sS'-O----OXX'
p4420
I1802
sS'----OXXOX'
p4421
I3781
sS'XO-OXXOXO'
p4422
I4419
sS'O-OX--XX-'
p4423
I857
sS'---XXO-XO'
p4424
I4421
sS'--XXO-OXO'
p4425
I4422
sS'OXO-XOX-X'
p4426
I4423
sS'X-XXO-OXO'
p4427
I4424
sS'XOXX-X-OO'
p4428
I4425
sS'X-O-O-X-X'
p4429
I4426
sS'O-O--XOXX'
p4430
I1661
sS'OXXXXO-O-'
p4431
I4428
sS'O--X---X-'
p4432
I4051
sS'XO---XO-X'
p4433
I2432
sS'-XXX-O-O-'
p4434
I4002
sS'XO-OXXOX-'
p4435
I4400
sS'OX---X--O'
p4436
I4432
sS'OX-X-XOXO'
p4437
I4433
sS'---XXOX-O'
p4438
I3822
sS'----XX--O'
p4439
I4435
sS'OO-XX---X'
p4440
I4033
sS'X-O-X--O-'
p4441
I4437
sS'OO--X-X-X'
p4442
I4438
sS'X-O--XOX-'
p4443
I2108
sS'XO---XOX-'
p4444
I4440
sS'X-OO-XX--'
p4445
I3748
sS'XXOOO-XXO'
p4446
I4441
sS'O--XXOXXO'
p4447
I4442
sS'X--XOX--O'
p4448
I2263
sS'-OO-XO-XX'
p4449
I4444
sS'O-XOXX-O-'
p4450
I3903
sS'O-O-X-XOX'
p4451
I4445
sS'-O--XXOXO'
p4452
I4446
sS'OXXOXO-OX'
p4453
I4502
sS'---O-OXX-'
p4454
I3043
sS'-X-O-OXXO'
p4455
I4122
sS'-OX--OX-X'
p4456
I3333
sS'OXO-XXO--'
p4457
I3392
sS'X---XOO--'
p4458
I4450
sS'XO-OXOXX-'
p4459
I4508
sS'O-------X'
p4460
I1959
sS'--XO--O-X'
p4461
I4453
sS'--O--XXO-'
p4462
I4454
sS'XO-OXOXXO'
p4463
I4140
sS'O--XO-XX-'
p4464
I2189
sS'XO-O-XO-X'
p4465
I4457
sS'-O------X'
p4466
I3154
sS'O-XX-OXO-'
p4467
I3056
sS'-OXXXO-O-'
p4468
I4460
sS'OOXX-XOXO'
p4469
I4461
sS'-O-OXXOX-'
p4470
I4184
sS'OXOO-XXOX'
p4471
I4187
sS'-O--O--XX'
p4472
I4192
sS'-O-XX--XO'
p4473
I4465
sS'O-O-X-XXO'
p4474
I4468
sS'-O-OXX-OX'
p4475
I4469
sS'--XO-O-X-'
p4476
I4470
sS'-XO-X-XO-'
p4477
I3416
sS'-XXXOXOO-'
p4478
I4472
sS'--O-X--XO'
p4479
I4473
sS'OXXOO-XX-'
p4480
I4474
sS'---OXXO-X'
p4481
I4475
sS'--OOX-X--'
p4482
I2376
sS'XOOXO--XX'
p4483
I2580
sS'OXXXXOO-O'
p4484
I4478
sS'---X-OX-O'
p4485
I4479
sS'-OX----XO'
p4486
I4480
sS'---XOX--O'
p4487
I4481
sS'-X---O---'
p4488
I3237
sS'-X--OOXX-'
p4489
I4483
sS'-X-XOOX-O'
p4490
I4484
sS'X--XO-OX-'
p4491
I4485
sS'------XO-'
p4492
I2932
sS'OOX-OXXX-'
p4493
I4487
sS'O-OXXOXX-'
p4494
I4488
sS'X-X-XO-O-'
p4495
I4489
sS'------XOX'
p4496
I4490
sS'X-XOO-XOX'
p4497
I3834
sS'O---O-XX-'
p4498
I4492
sS'-XOOXXOOX'
p4499
I4493
sS'-OXXX--O-'
p4500
I3913
sS'OXXXXOO--'
p4501
I4494
sS'-X-XOOX--'
p4502
I66
sS'O-----XXO'
p4503
I1202
sS'-X--OOXXO'
p4504
I4497
sS'-X--O-XOX'
p4505
I4498
sS'XOO--X-X-'
p4506
I3757
sS'--X--OX-O'
p4507
I4500
sS'-X-O-OXX-'
p4508
I4414
sS'OO-X--X--'
p4509
I605
sS'-XOX-OO-X'
p4510
I4503
sS'-XOXOX-XO'
p4511
I4504
sS'-XO-XOX--'
p4512
I4505
sS'XX-OX-O-O'
p4513
I4506
sS'X-XO-X-OO'
p4514
I3144
sS'--X--XXOO'
p4515
I77
sS'-OXXXO-OX'
p4516
I4451
sS'OX-OOXX-X'
p4517
I2983
sS'-O-OXXOXX'
p4518
I4510
sS'----O--XX'
p4519
I4466
sS'X-X-O-OXO'
p4520
I4512
sS'---OX-X--'
p4521
I3550
sS'OOXX-XOX-'
p4522
I4514
sS'XOOX-----'
p4523
I4515
sS'--X-OO-X-'
p4524
I4127
sS'O---X--X-'
p4525
I4517
sS'XOXXXO-OO'
p4526
I4518
sS'OO-OX--XX'
p4527
I4519
ssS'game'
p4528
(dp4529
I0
g8
sI1
g9
sI2
g10
sI3
g3004
sI4
g2220
sI5
g13
sI6
g14
sI7
g16
sI8
g2221
sI9
g17
sI10
g18
sI11
g19
sI12
g20
sI13
g21
sI14
g2376
sI15
g23
sI16
g24
sI17
g25
sI18
g26
sI19
g27
sI20
g28
sI21
g29
sI22
g30
sI23
g1191
sI24
g31
sI25
g3748
sI26
g33
sI27
g2224
sI28
g3009
sI29
g36
sI30
g37
sI31
g38
sI32
g39
sI33
g40
sI34
g41
sI35
g42
sI36
g1432
sI37
g2227
sI38
g45
sI39
g46
sI40
g47
sI41
g48
sI42
g49
sI43
g50
sI44
g51
sI45
g52
sI46
g53
sI47
g54
sI48
g2230
sI49
g56
sI50
g1466
sI51
g58
sI52
g59
sI53
g3013
sI54
g61
sI55
g2091
sI56
g2373
sI57
g65
sI58
g66
sI59
g67
sI60
g1436
sI61
g68
sI62
g69
sI63
g70
sI64
g4082
sI65
g71
sI66
g4502
sI67
g73
sI68
g1486
sI69
g3472
sI70
g76
sI71
g77
sI72
g78
sI73
g79
sI74
g2858
sI75
g80
sI76
g81
sI77
g4515
sI78
g83
sI79
g84
sI80
g2226
sI81
g1474
sI82
g85
sI83
g86
sI84
g87
sI85
g89
sI86
g90
sI87
g91
sI88
g92
sI89
g93
sI90
g94
sI91
g95
sI92
g96
sI93
g97
sI94
g3094
sI95
g98
sI96
g99
sI97
g100
sI98
g101
sI99
g747
sI100
g103
sI101
g104
sI102
g2524
sI103
g105
sI104
g106
sI105
g3566
sI106
g107
sI107
g108
sI108
g109
sI109
g110
sI110
g111
sI111
g112
sI112
g113
sI113
g114
sI114
g115
sI115
g116
sI116
g117
sI117
g118
sI118
g119
sI119
g248
sI120
g120
sI121
g121
sI122
g3023
sI123
g123
sI124
g1750
sI125
g124
sI126
g125
sI127
g126
sI128
g127
sI129
g128
sI130
g3728
sI131
g4197
sI132
g130
sI133
g131
sI134
g132
sI135
g133
sI136
g134
sI137
g135
sI138
g136
sI139
g2805
sI140
g138
sI141
g139
sI142
g2243
sI143
g141
sI144
g142
sI145
g143
sI146
g1439
sI147
g144
sI148
g145
sI149
g146
sI150
g149
sI151
g150
sI152
g151
sI153
g152
sI154
g153
sI155
g154
sI156
g155
sI157
g156
sI158
g157
sI159
g158
sI160
g159
sI161
g3027
sI162
g161
sI163
g162
sI164
g163
sI165
g164
sI166
g1283
sI167
g165
sI168
g35
sI169
g168
sI170
g1483
sI171
g3029
sI172
g3871
sI173
g171
sI174
g172
sI175
g173
sI176
g3772
sI177
g174
sI178
g3031
sI179
g176
sI180
g177
sI181
g178
sI182
g179
sI183
g180
sI184
g181
sI185
g182
sI186
g2590
sI187
g183
sI188
g1024
sI189
g185
sI190
g186
sI191
g2251
sI192
g188
sI193
g2231
sI194
g189
sI195
g2361
sI196
g2040
sI197
g191
sI198
g193
sI199
g194
sI200
g195
sI201
g3218
sI202
g197
sI203
g1122
sI204
g199
sI205
g200
sI206
g201
sI207
g202
sI208
g203
sI209
g204
sI210
g205
sI211
g3396
sI212
g206
sI213
g207
sI214
g3778
sI215
g209
sI216
g210
sI217
g211
sI218
g212
sI219
g213
sI220
g215
sI221
g216
sI222
g217
sI223
g2258
sI224
g220
sI225
g221
sI226
g222
sI227
g223
sI228
g224
sI229
g1491
sI230
g226
sI231
g3174
sI232
g227
sI233
g1492
sI234
g229
sI235
g230
sI236
g231
sI237
g233
sI238
g235
sI239
g236
sI240
g237
sI241
g238
sI242
g923
sI243
g239
sI244
g240
sI245
g241
sI246
g696
sI247
g3848
sI248
g243
sI249
g244
sI250
g3653
sI251
g246
sI252
g247
sI253
g2048
sI254
g249
sI255
g250
sI256
g251
sI257
g252
sI258
g253
sI259
g255
sI260
g2265
sI261
g3784
sI262
g258
sI263
g259
sI264
g260
sI265
g82
sI266
g262
sI267
g263
sI268
g3018
sI269
g265
sI270
g266
sI271
g3015
sI272
g1794
sI273
g267
sI274
g268
sI275
g269
sI276
g271
sI277
g272
sI278
g274
sI279
g275
sI280
g276
sI281
g277
sI282
g2269
sI283
g279
sI284
g280
sI285
g281
sI286
g283
sI287
g284
sI288
g285
sI289
g1180
sI290
g286
sI291
g287
sI292
g288
sI293
g289
sI294
g4044
sI295
g1978
sI296
g291
sI297
g2433
sI298
g2274
sI299
g293
sI300
g295
sI301
g296
sI302
g297
sI303
g298
sI304
g299
sI305
g1509
sI306
g300
sI307
g301
sI308
g302
sI309
g303
sI310
g304
sI311
g305
sI312
g307
sI313
g308
sI314
g2200
sI315
g309
sI316
g310
sI317
g311
sI318
g3792
sI319
g2028
sI320
g313
sI321
g2117
sI322
g315
sI323
g3186
sI324
g752
sI325
g317
sI326
g3055
sI327
g320
sI328
g984
sI329
g3794
sI330
g324
sI331
g2867
sI332
g1512
sI333
g327
sI334
g328
sI335
g329
sI336
g330
sI337
g2559
sI338
g331
sI339
g332
sI340
g333
sI341
g335
sI342
g336
sI343
g337
sI344
g338
sI345
g339
sI346
g340
sI347
g341
sI348
g342
sI349
g343
sI350
g1460
sI351
g344
sI352
g345
sI353
g2311
sI354
g346
sI355
g1514
sI356
g348
sI357
g349
sI358
g350
sI359
g351
sI360
g1515
sI361
g353
sI362
g354
sI363
g256
sI364
g356
sI365
g357
sI366
g358
sI367
g359
sI368
g360
sI369
g361
sI370
g362
sI371
g1518
sI372
g364
sI373
g365
sI374
g366
sI375
g367
sI376
g368
sI377
g369
sI378
g370
sI379
g371
sI380
g372
sI381
g373
sI382
g374
sI383
g1521
sI384
g376
sI385
g2245
sI386
g3076
sI387
g377
sI388
g380
sI389
g2301
sI390
g381
sI391
g382
sI392
g383
sI393
g384
sI394
g693
sI395
g385
sI396
g1632
sI397
g1525
sI398
g387
sI399
g388
sI400
g1189
sI401
g391
sI402
g392
sI403
g393
sI404
g394
sI405
g395
sI406
g396
sI407
g800
sI408
g397
sI409
g75
sI410
g1528
sI411
g3071
sI412
g2299
sI413
g400
sI414
g401
sI415
g402
sI416
g403
sI417
g404
sI418
g405
sI419
g406
sI420
g407
sI421
g409
sI422
g410
sI423
g411
sI424
g412
sI425
g413
sI426
g414
sI427
g415
sI428
g3901
sI429
g416
sI430
g417
sI431
g418
sI432
g419
sI433
g420
sI434
g421
sI435
g422
sI436
g423
sI437
g424
sI438
g425
sI439
g426
sI440
g427
sI441
g428
sI442
g429
sI443
g3323
sI444
g430
sI445
g431
sI446
g432
sI447
g433
sI448
g434
sI449
g1585
sI450
g435
sI451
g2001
sI452
g436
sI453
g437
sI454
g3818
sI455
g439
sI456
g440
sI457
g811
sI458
g441
sI459
g443
sI460
g444
sI461
g445
sI462
g2644
sI463
g3821
sI464
g448
sI465
g2945
sI466
g449
sI467
g450
sI468
g451
sI469
g1298
sI470
g453
sI471
g454
sI472
g455
sI473
g456
sI474
g457
sI475
g458
sI476
g1142
sI477
g459
sI478
g3824
sI479
g462
sI480
g463
sI481
g3825
sI482
g465
sI483
g466
sI484
g467
sI485
g468
sI486
g3826
sI487
g470
sI488
g471
sI489
g1541
sI490
g473
sI491
g474
sI492
g475
sI493
g476
sI494
g1815
sI495
g477
sI496
g478
sI497
g479
sI498
g817
sI499
g481
sI500
g482
sI501
g483
sI502
g484
sI503
g2582
sI504
g485
sI505
g486
sI506
g487
sI507
g1988
sI508
g1103
sI509
g3453
sI510
g488
sI511
g1547
sI512
g3986
sI513
g491
sI514
g492
sI515
g493
sI516
g494
sI517
g495
sI518
g496
sI519
g1835
sI520
g498
sI521
g499
sI522
g3849
sI523
g500
sI524
g501
sI525
g502
sI526
g503
sI527
g504
sI528
g505
sI529
g3886
sI530
g506
sI531
g507
sI532
g508
sI533
g1549
sI534
g510
sI535
g511
sI536
g512
sI537
g513
sI538
g514
sI539
g3697
sI540
g515
sI541
g516
sI542
g517
sI543
g3838
sI544
g518
sI545
g4113
sI546
g519
sI547
g520
sI548
g521
sI549
g522
sI550
g2324
sI551
g524
sI552
g525
sI553
g526
sI554
g527
sI555
g2587
sI556
g529
sI557
g530
sI558
g3841
sI559
g532
sI560
g1047
sI561
g533
sI562
g534
sI563
g535
sI564
g538
sI565
g539
sI566
g629
sI567
g541
sI568
g542
sI569
g543
sI570
g544
sI571
g545
sI572
g546
sI573
g547
sI574
g548
sI575
g2928
sI576
g549
sI577
g551
sI578
g552
sI579
g553
sI580
g3539
sI581
g555
sI582
g556
sI583
g558
sI584
g3850
sI585
g560
sI586
g166
sI587
g561
sI588
g3105
sI589
g1557
sI590
g563
sI591
g564
sI592
g565
sI593
g566
sI594
g567
sI595
g630
sI596
g568
sI597
g569
sI598
g570
sI599
g1752
sI600
g571
sI601
g572
sI602
g575
sI603
g576
sI604
g577
sI605
g4509
sI606
g579
sI607
g580
sI608
g3108
sI609
g583
sI610
g1053
sI611
g584
sI612
g585
sI613
g1566
sI614
g587
sI615
g588
sI616
g589
sI617
g1459
sI618
g590
sI619
g1017
sI620
g1567
sI621
g2434
sI622
g593
sI623
g2578
sI624
g1568
sI625
g595
sI626
g596
sI627
g597
sI628
g598
sI629
g599
sI630
g600
sI631
g601
sI632
g602
sI633
g603
sI634
g604
sI635
g605
sI636
g606
sI637
g1570
sI638
g608
sI639
g609
sI640
g610
sI641
g611
sI642
g613
sI643
g614
sI644
g615
sI645
g616
sI646
g617
sI647
g618
sI648
g619
sI649
g620
sI650
g3862
sI651
g622
sI652
g623
sI653
g490
sI654
g625
sI655
g626
sI656
g628
sI657
g4000
sI658
g2300
sI659
g3404
sI660
g1574
sI661
g632
sI662
g633
sI663
g679
sI664
g634
sI665
g635
sI666
g636
sI667
g637
sI668
g638
sI669
g639
sI670
g641
sI671
g2151
sI672
g643
sI673
g644
sI674
g645
sI675
g1577
sI676
g647
sI677
g648
sI678
g3935
sI679
g649
sI680
g650
sI681
g651
sI682
g652
sI683
g653
sI684
g3868
sI685
g2707
sI686
g657
sI687
g3869
sI688
g2440
sI689
g3120
sI690
g660
sI691
g3093
sI692
g4170
sI693
g662
sI694
g701
sI695
g1341
sI696
g4039
sI697
g665
sI698
g666
sI699
g667
sI700
g668
sI701
g669
sI702
g670
sI703
g672
sI704
g673
sI705
g674
sI706
g675
sI707
g677
sI708
g678
sI709
g4244
sI710
g1777
sI711
g3211
sI712
g681
sI713
g122
sI714
g1840
sI715
g684
sI716
g685
sI717
g686
sI718
g687
sI719
g688
sI720
g689
sI721
g690
sI722
g691
sI723
g692
sI724
g1908
sI725
g4331
sI726
g694
sI727
g695
sI728
g4355
sI729
g697
sI730
g698
sI731
g699
sI732
g700
sI733
g979
sI734
g2349
sI735
g704
sI736
g705
sI737
g706
sI738
g707
sI739
g2132
sI740
g709
sI741
g1588
sI742
g711
sI743
g712
sI744
g713
sI745
g714
sI746
g715
sI747
g716
sI748
g717
sI749
g718
sI750
g719
sI751
g721
sI752
g722
sI753
g724
sI754
g725
sI755
g726
sI756
g1381
sI757
g727
sI758
g728
sI759
g3133
sI760
g3600
sI761
g731
sI762
g3880
sI763
g733
sI764
g734
sI765
g736
sI766
g737
sI767
g2355
sI768
g741
sI769
g742
sI770
g743
sI771
g744
sI772
g745
sI773
g746
sI774
g129
sI775
g102
sI776
g749
sI777
g750
sI778
g751
sI779
g1969
sI780
g753
sI781
g754
sI782
g755
sI783
g3923
sI784
g756
sI785
g757
sI786
g758
sI787
g759
sI788
g2883
sI789
g761
sI790
g762
sI791
g763
sI792
g764
sI793
g765
sI794
g766
sI795
g767
sI796
g768
sI797
g1941
sI798
g770
sI799
g771
sI800
g772
sI801
g773
sI802
g774
sI803
g775
sI804
g776
sI805
g777
sI806
g778
sI807
g779
sI808
g781
sI809
g782
sI810
g2804
sI811
g3705
sI812
g784
sI813
g785
sI814
g786
sI815
g137
sI816
g787
sI817
g788
sI818
g791
sI819
g792
sI820
g793
sI821
g794
sI822
g795
sI823
g796
sI824
g797
sI825
g2693
sI826
g2362
sI827
g843
sI828
g801
sI829
g802
sI830
g803
sI831
g804
sI832
g805
sI833
g806
sI834
g807
sI835
g808
sI836
g809
sI837
g3147
sI838
g812
sI839
g2419
sI840
g4405
sI841
g853
sI842
g813
sI843
g815
sI844
g816
sI845
g3148
sI846
g818
sI847
g819
sI848
g820
sI849
g822
sI850
g823
sI851
g824
sI852
g825
sI853
g826
sI854
g827
sI855
g828
sI856
g3895
sI857
g4423
sI858
g830
sI859
g832
sI860
g2629
sI861
g833
sI862
g661
sI863
g835
sI864
g836
sI865
g837
sI866
g838
sI867
g3799
sI868
g839
sI869
g840
sI870
g841
sI871
g842
sI872
g3155
sI873
g844
sI874
g3156
sI875
g846
sI876
g847
sI877
g848
sI878
g849
sI879
g318
sI880
g851
sI881
g852
sI882
g2767
sI883
g729
sI884
g854
sI885
g855
sI886
g856
sI887
g858
sI888
g4130
sI889
g860
sI890
g861
sI891
g2574
sI892
g862
sI893
g2208
sI894
g864
sI895
g1329
sI896
g866
sI897
g867
sI898
g868
sI899
g869
sI900
g870
sI901
g873
sI902
g4037
sI903
g874
sI904
g875
sI905
g876
sI906
g877
sI907
g3227
sI908
g878
sI909
g879
sI910
g880
sI911
g3164
sI912
g882
sI913
g2380
sI914
g884
sI915
g885
sI916
g2381
sI917
g888
sI918
g889
sI919
g890
sI920
g2514
sI921
g891
sI922
g893
sI923
g894
sI924
g895
sI925
g896
sI926
g988
sI927
g3906
sI928
g899
sI929
g900
sI930
g901
sI931
g903
sI932
g904
sI933
g905
sI934
g906
sI935
g3217
sI936
g1623
sI937
g2763
sI938
g908
sI939
g1064
sI940
g911
sI941
g912
sI942
g913
sI943
g914
sI944
g915
sI945
g916
sI946
g917
sI947
g1625
sI948
g3172
sI949
g920
sI950
g2474
sI951
g921
sI952
g922
sI953
g4002
sI954
g924
sI955
g925
sI956
g926
sI957
g927
sI958
g928
sI959
g3914
sI960
g930
sI961
g3175
sI962
g1615
sI963
g3915
sI964
g933
sI965
g934
sI966
g935
sI967
g1248
sI968
g937
sI969
g3916
sI970
g939
sI971
g940
sI972
g4228
sI973
g941
sI974
g942
sI975
g943
sI976
g1887
sI977
g944
sI978
g945
sI979
g946
sI980
g1561
sI981
g948
sI982
g949
sI983
g1790
sI984
g950
sI985
g952
sI986
g953
sI987
g2395
sI988
g955
sI989
g956
sI990
g957
sI991
g958
sI992
g3572
sI993
g959
sI994
g960
sI995
g961
sI996
g963
sI997
g964
sI998
g3921
sI999
g3861
sI1000
g966
sI1001
g967
sI1002
g968
sI1003
g242
sI1004
g969
sI1005
g175
sI1006
g971
sI1007
g2049
sI1008
g974
sI1009
g975
sI1010
g976
sI1011
g1014
sI1012
g2881
sI1013
g977
sI1014
g978
sI1015
g1664
sI1016
g980
sI1017
g981
sI1018
g982
sI1019
g983
sI1020
g2115
sI1021
g1910
sI1022
g985
sI1023
g986
sI1024
g987
sI1025
g897
sI1026
g989
sI1027
g990
sI1028
g3595
sI1029
g991
sI1030
g993
sI1031
g994
sI1032
g995
sI1033
g996
sI1034
g997
sI1035
g998
sI1036
g999
sI1037
g1000
sI1038
g3187
sI1039
g1002
sI1040
g1003
sI1041
g1004
sI1042
g1005
sI1043
g1006
sI1044
g1007
sI1045
g4153
sI1046
g1008
sI1047
g1009
sI1048
g1010
sI1049
g1011
sI1050
g2727
sI1051
g1013
sI1052
g3930
sI1053
g1015
sI1054
g1016
sI1055
g1745
sI1056
g1018
sI1057
g1019
sI1058
g1020
sI1059
g1021
sI1060
g3067
sI1061
g1022
sI1062
g4288
sI1063
g1023
sI1064
g1818
sI1065
g1025
sI1066
g1026
sI1067
g1027
sI1068
g1028
sI1069
g1029
sI1070
g1030
sI1071
g1031
sI1072
g1032
sI1073
g1033
sI1074
g1034
sI1075
g1035
sI1076
g1036
sI1077
g1037
sI1078
g1038
sI1079
g187
sI1080
g1039
sI1081
g732
sI1082
g3014
sI1083
g1995
sI1084
g1042
sI1085
g1652
sI1086
g1044
sI1087
g1045
sI1088
g1046
sI1089
g4184
sI1090
g1048
sI1091
g3876
sI1092
g3198
sI1093
g1051
sI1094
g1052
sI1095
g3199
sI1096
g1054
sI1097
g1055
sI1098
g1056
sI1099
g1057
sI1100
g1058
sI1101
g1059
sI1102
g1655
sI1103
g1061
sI1104
g2416
sI1105
g909
sI1106
g1065
sI1107
g2417
sI1108
g3938
sI1109
g1068
sI1110
g1069
sI1111
g190
sI1112
g1072
sI1113
g1073
sI1114
g1074
sI1115
g1639
sI1116
g1075
sI1117
g1659
sI1118
g3204
sI1119
g2136
sI1120
g1079
sI1121
g3205
sI1122
g1081
sI1123
g1082
sI1124
g3941
sI1125
g1084
sI1126
g1085
sI1127
g3701
sI1128
g1661
sI1129
g1087
sI1130
g1088
sI1131
g1089
sI1132
g1091
sI1133
g1093
sI1134
g1095
sI1135
g1096
sI1136
g1098
sI1137
g1099
sI1138
g1101
sI1139
g1102
sI1140
g2294
sI1141
g1104
sI1142
g1105
sI1143
g1106
sI1144
g1107
sI1145
g1108
sI1146
g1109
sI1147
g1110
sI1148
g1111
sI1149
g1112
sI1150
g554
sI1151
g1113
sI1152
g1114
sI1153
g1115
sI1154
g1116
sI1155
g1117
sI1156
g1119
sI1157
g3948
sI1158
g1120
sI1159
g1121
sI1160
g198
sI1161
g3949
sI1162
g1125
sI1163
g1126
sI1164
g1127
sI1165
g1128
sI1166
g1129
sI1167
g1809
sI1168
g2090
sI1169
g1130
sI1170
g1131
sI1171
g1132
sI1172
g1133
sI1173
g1134
sI1174
g1135
sI1175
g3951
sI1176
g1137
sI1177
g1138
sI1178
g1139
sI1179
g1140
sI1180
g1141
sI1181
g2502
sI1182
g2431
sI1183
g1144
sI1184
g1145
sI1185
g1146
sI1186
g2432
sI1187
g2960
sI1188
g1667
sI1189
g1149
sI1190
g1150
sI1191
g1151
sI1192
g1152
sI1193
g1153
sI1194
g1154
sI1195
g3020
sI1196
g1155
sI1197
g2435
sI1198
g2793
sI1199
g1157
sI1200
g1158
sI1201
g2778
sI1202
g4503
sI1203
g1159
sI1204
g1160
sI1205
g1161
sI1206
g1162
sI1207
g1163
sI1208
g1164
sI1209
g1165
sI1210
g1166
sI1211
g1167
sI1212
g1168
sI1213
g1169
sI1214
g3111
sI1215
g1170
sI1216
g1981
sI1217
g2109
sI1218
g1173
sI1219
g2439
sI1220
g1175
sI1221
g1176
sI1222
g1177
sI1223
g2326
sI1224
g1674
sI1225
g1181
sI1226
g4003
sI1227
g1183
sI1228
g1184
sI1229
g1185
sI1230
g1186
sI1231
g1187
sI1232
g1188
sI1233
g2561
sI1234
g3294
sI1235
g3822
sI1236
g1192
sI1237
g184
sI1238
g1193
sI1239
g3482
sI1240
g1194
sI1241
g1195
sI1242
g1196
sI1243
g1197
sI1244
g1198
sI1245
g1199
sI1246
g2444
sI1247
g1201
sI1248
g3965
sI1249
g1203
sI1250
g1204
sI1251
g1205
sI1252
g931
sI1253
g562
sI1254
g1206
sI1255
g3946
sI1256
g1207
sI1257
g1080
sI1258
g1209
sI1259
g1210
sI1260
g1211
sI1261
g3966
sI1262
g1213
sI1263
g1214
sI1264
g1215
sI1265
g1216
sI1266
g3219
sI1267
g1217
sI1268
g1218
sI1269
g1219
sI1270
g1220
sI1271
g1222
sI1272
g1223
sI1273
g1224
sI1274
g1225
sI1275
g1226
sI1276
g1228
sI1277
g1229
sI1278
g1230
sI1279
g1231
sI1280
g1232
sI1281
g1233
sI1282
g1234
sI1283
g1235
sI1284
g1236
sI1285
g1238
sI1286
g3036
sI1287
g1239
sI1288
g1240
sI1289
g1241
sI1290
g1242
sI1291
g1243
sI1292
g1245
sI1293
g1246
sI1294
g1247
sI1295
g936
sI1296
g1249
sI1297
g1250
sI1298
g1687
sI1299
g1252
sI1300
g1253
sI1301
g1254
sI1302
g1255
sI1303
g1256
sI1304
g1257
sI1305
g1258
sI1306
g1259
sI1307
g1260
sI1308
g1261
sI1309
g3102
sI1310
g1264
sI1311
g1265
sI1312
g3521
sI1313
g3974
sI1314
g1267
sI1315
g1268
sI1316
g225
sI1317
g3975
sI1318
g4274
sI1319
g1270
sI1320
g1271
sI1321
g1272
sI1322
g1273
sI1323
g1274
sI1324
g1691
sI1325
g1276
sI1326
g1277
sI1327
g1278
sI1328
g1279
sI1329
g1280
sI1330
g1282
sI1331
g1078
sI1332
g3414
sI1333
g1692
sI1334
g1285
sI1335
g1286
sI1336
g1287
sI1337
g4198
sI1338
g1288
sI1339
g1289
sI1340
g1290
sI1341
g1291
sI1342
g1293
sI1343
g1294
sI1344
g1295
sI1345
g703
sI1346
g1297
sI1347
g3505
sI1348
g386
sI1349
g3234
sI1350
g1300
sI1351
g4390
sI1352
g1302
sI1353
g3982
sI1354
g1304
sI1355
g1305
sI1356
g1306
sI1357
g3235
sI1358
g1309
sI1359
g1310
sI1360
g1311
sI1361
g1312
sI1362
g1313
sI1363
g1314
sI1364
g2571
sI1365
g1315
sI1366
g1316
sI1367
g1317
sI1368
g1318
sI1369
g1319
sI1370
g1320
sI1371
g1321
sI1372
g1322
sI1373
g1323
sI1374
g1324
sI1375
g4229
sI1376
g1326
sI1377
g1327
sI1378
g1077
sI1379
g1328
sI1380
g2536
sI1381
g3240
sI1382
g1330
sI1383
g1331
sI1384
g1332
sI1385
g1333
sI1386
g3904
sI1387
g1334
sI1388
g1335
sI1389
g1336
sI1390
g1337
sI1391
g1338
sI1392
g1339
sI1393
g1340
sI1394
g2391
sI1395
g1700
sI1396
g1344
sI1397
g1346
sI1398
g1347
sI1399
g1348
sI1400
g1349
sI1401
g1350
sI1402
g1351
sI1403
g1352
sI1404
g1354
sI1405
g1355
sI1406
g1356
sI1407
g1357
sI1408
g1358
sI1409
g1359
sI1410
g57
sI1411
g1361
sI1412
g4256
sI1413
g1362
sI1414
g3247
sI1415
g1364
sI1416
g1365
sI1417
g1366
sI1418
g1367
sI1419
g1368
sI1420
g1371
sI1421
g1372
sI1422
g1374
sI1423
g2472
sI1424
g1376
sI1425
g1377
sI1426
g1378
sI1427
g1596
sI1428
g2473
sI1429
g1380
sI1430
g3286
sI1431
g4062
sI1432
g1382
sI1433
g1383
sI1434
g2868
sI1435
g1384
sI1436
g1385
sI1437
g1386
sI1438
g1388
sI1439
g1389
sI1440
g1390
sI1441
g1391
sI1442
g1392
sI1443
g1393
sI1444
g1394
sI1445
g2045
sI1446
g1395
sI1447
g1396
sI1448
g1397
sI1449
g1398
sI1450
g1399
sI1451
g3254
sI1452
g1401
sI1453
g1402
sI1454
g1403
sI1455
g1404
sI1456
g1405
sI1457
g954
sI1458
g1406
sI1459
g1407
sI1460
g3255
sI1461
g1410
sI1462
g1411
sI1463
g1412
sI1464
g1414
sI1465
g1415
sI1466
g1416
sI1467
g1417
sI1468
g1418
sI1469
g1419
sI1470
g1420
sI1471
g1421
sI1472
g2687
sI1473
g1423
sI1474
g2482
sI1475
g1425
sI1476
g1426
sI1477
g1427
sI1478
g1428
sI1479
g3138
sI1480
g1429
sI1481
g1430
sI1482
g1431
sI1483
g4369
sI1484
g1433
sI1485
g1434
sI1486
g4007
sI1487
g1435
sI1488
g2575
sI1489
g1710
sI1490
g1438
sI1491
g1882
sI1492
g1440
sI1493
g1441
sI1494
g1442
sI1495
g1443
sI1496
g1444
sI1497
g1445
sI1498
g1446
sI1499
g1447
sI1500
g1448
sI1501
g1449
sI1502
g1450
sI1503
g1451
sI1504
g1452
sI1505
g1453
sI1506
g1454
sI1507
g1455
sI1508
g1456
sI1509
g1458
sI1510
g3580
sI1511
g2369
sI1512
g1719
sI1513
g1462
sI1514
g965
sI1515
g1463
sI1516
g1464
sI1517
g1465
sI1518
g2592
sI1519
g1467
sI1520
g1468
sI1521
g1469
sI1522
g1470
sI1523
g1471
sI1524
g2488
sI1525
g3266
sI1526
g1475
sI1527
g1476
sI1528
g1477
sI1529
g1478
sI1530
g3045
sI1531
g3331
sI1532
g1479
sI1533
g1497
sI1534
g1480
sI1535
g1481
sI1536
g1482
sI1537
g3142
sI1538
g169
sI1539
g2981
sI1540
g1484
sI1541
g1485
sI1542
g3478
sI1543
g1487
sI1544
g1488
sI1545
g1489
sI1546
g264
sI1547
g1490
sI1548
g970
sI1549
g3658
sI1550
g228
sI1551
g1493
sI1552
g1494
sI1553
g3476
sI1554
g1496
sI1555
g2492
sI1556
g1499
sI1557
g1500
sI1558
g1501
sI1559
g1503
sI1560
g3271
sI1561
g1505
sI1562
g1506
sI1563
g1507
sI1564
g1508
sI1565
g973
sI1566
g1510
sI1567
g1511
sI1568
g326
sI1569
g1513
sI1570
g3074
sI1571
g4017
sI1572
g347
sI1573
g352
sI1574
g1516
sI1575
g1517
sI1576
g1900
sI1577
g1519
sI1578
g2497
sI1579
g375
sI1580
g1522
sI1581
g1524
sI1582
g2747
sI1583
g1527
sI1584
g4084
sI1585
g1529
sI1586
g1530
sI1587
g1531
sI1588
g1532
sI1589
g1533
sI1590
g1534
sI1591
g1535
sI1592
g2143
sI1593
g1537
sI1594
g1538
sI1595
g621
sI1596
g3277
sI1597
g472
sI1598
g1542
sI1599
g1543
sI1600
g1544
sI1601
g1545
sI1602
g1546
sI1603
g4043
sI1604
g1548
sI1605
g509
sI1606
g1550
sI1607
g1551
sI1608
g1552
sI1609
g3280
sI1610
g1554
sI1611
g1555
sI1612
g4148
sI1613
g1558
sI1614
g4023
sI1615
g1560
sI1616
g1957
sI1617
g1562
sI1618
g2529
sI1619
g1564
sI1620
g1565
sI1621
g586
sI1622
g591
sI1623
g594
sI1624
g1569
sI1625
g607
sI1626
g1571
sI1627
g1572
sI1628
g4026
sI1629
g631
sI1630
g1575
sI1631
g1576
sI1632
g646
sI1633
g1578
sI1634
g1579
sI1635
g1580
sI1636
g1581
sI1637
g1582
sI1638
g1583
sI1639
g3681
sI1640
g1586
sI1641
g1587
sI1642
g4232
sI1643
g1590
sI1644
g1591
sI1645
g1592
sI1646
g1593
sI1647
g1594
sI1648
g1595
sI1649
g748
sI1650
g1929
sI1651
g2113
sI1652
g1597
sI1653
g1599
sI1654
g4202
sI1655
g1600
sI1656
g3928
sI1657
g1603
sI1658
g1604
sI1659
g3376
sI1660
g1606
sI1661
g4430
sI1662
g1607
sI1663
g1608
sI1664
g1609
sI1665
g3592
sI1666
g1610
sI1667
g1611
sI1668
g1612
sI1669
g863
sI1670
g1616
sI1671
g1617
sI1672
g1619
sI1673
g1620
sI1674
g3293
sI1675
g1622
sI1676
g907
sI1677
g1741
sI1678
g918
sI1679
g1626
sI1680
g655
sI1681
g1520
sI1682
g1627
sI1683
g1629
sI1684
g1630
sI1685
g1631
sI1686
g2194
sI1687
g1633
sI1688
g1634
sI1689
g1636
sI1690
g4119
sI1691
g2654
sI1692
g2510
sI1693
g1641
sI1694
g1642
sI1695
g1643
sI1696
g1644
sI1697
g1645
sI1698
g1646
sI1699
g1647
sI1700
g1648
sI1701
g1649
sI1702
g2512
sI1703
g4038
sI1704
g1043
sI1705
g1653
sI1706
g1654
sI1707
g2343
sI1708
g1656
sI1709
g1657
sI1710
g1658
sI1711
g1076
sI1712
g1660
sI1713
g1086
sI1714
g1662
sI1715
g1663
sI1716
g1118
sI1717
g1665
sI1718
g1666
sI1719
g1148
sI1720
g1668
sI1721
g1822
sI1722
g1669
sI1723
g1670
sI1724
g1671
sI1725
g1673
sI1726
g325
sI1727
g1676
sI1728
g1677
sI1729
g1678
sI1730
g1680
sI1731
g1681
sI1732
g1748
sI1733
g1683
sI1734
g1684
sI1735
g1685
sI1736
g1686
sI1737
g1251
sI1738
g3741
sI1739
g1688
sI1740
g1689
sI1741
g1690
sI1742
g1275
sI1743
g2519
sI1744
g1284
sI1745
g1693
sI1746
g1694
sI1747
g1695
sI1748
g2672
sI1749
g1696
sI1750
g1697
sI1751
g1699
sI1752
g1342
sI1753
g1701
sI1754
g1702
sI1755
g1703
sI1756
g1704
sI1757
g1705
sI1758
g1706
sI1759
g1707
sI1760
g1708
sI1761
g1709
sI1762
g3312
sI1763
g1711
sI1764
g3416
sI1765
g1712
sI1766
g1713
sI1767
g658
sI1768
g1714
sI1769
g1715
sI1770
g1716
sI1771
g1717
sI1772
g2368
sI1773
g1718
sI1774
g1461
sI1775
g1720
sI1776
g1722
sI1777
g1755
sI1778
g1724
sI1779
g1725
sI1780
g1726
sI1781
g3526
sI1782
g3315
sI1783
g2527
sI1784
g2411
sI1785
g938
sI1786
g1729
sI1787
g1730
sI1788
g1731
sI1789
g1732
sI1790
g1733
sI1791
g2530
sI1792
g1736
sI1793
g4056
sI1794
g1738
sI1795
g1739
sI1796
g1740
sI1797
g2446
sI1798
g1742
sI1799
g1743
sI1800
g1744
sI1801
g292
sI1802
g4420
sI1803
g1746
sI1804
g1682
sI1805
g1749
sI1806
g2002
sI1807
g1751
sI1808
g2534
sI1809
g4060
sI1810
g2150
sI1811
g1723
sI1812
g1756
sI1813
g1757
sI1814
g4061
sI1815
g1759
sI1816
g1760
sI1817
g1761
sI1818
g1762
sI1819
g1763
sI1820
g1764
sI1821
g1765
sI1822
g1766
sI1823
g3684
sI1824
g1767
sI1825
g1768
sI1826
g1769
sI1827
g1770
sI1828
g1771
sI1829
g1772
sI1830
g1773
sI1831
g2537
sI1832
g4065
sI1833
g1776
sI1834
g1841
sI1835
g1778
sI1836
g1779
sI1837
g1780
sI1838
g1781
sI1839
g1783
sI1840
g2425
sI1841
g2539
sI1842
g1785
sI1843
g1786
sI1844
g3586
sI1845
g1788
sI1846
g1212
sI1847
g1905
sI1848
g2540
sI1849
g1946
sI1850
g1791
sI1851
g1792
sI1852
g3493
sI1853
g1793
sI1854
g1972
sI1855
g1795
sI1856
g1796
sI1857
g1797
sI1858
g1800
sI1859
g1801
sI1860
g1802
sI1861
g1804
sI1862
g1805
sI1863
g1806
sI1864
g1808
sI1865
g2044
sI1866
g1810
sI1867
g1811
sI1868
g1814
sI1869
g2066
sI1870
g2542
sI1871
g1817
sI1872
g3334
sI1873
g2081
sI1874
g1819
sI1875
g3330
sI1876
g2106
sI1877
g1823
sI1878
g1824
sI1879
g1825
sI1880
g1826
sI1881
g1827
sI1882
g1828
sI1883
g1829
sI1884
g1830
sI1885
g2545
sI1886
g1831
sI1887
g1832
sI1888
g1833
sI1889
g1834
sI1890
g2841
sI1891
g1836
sI1892
g1640
sI1893
g1837
sI1894
g1838
sI1895
g1839
sI1896
g2229
sI1897
g2212
sI1898
g1842
sI1899
g1843
sI1900
g1844
sI1901
g1845
sI1902
g2549
sI1903
g2175
sI1904
g1847
sI1905
g1848
sI1906
g1849
sI1907
g1850
sI1908
g1851
sI1909
g1852
sI1910
g1853
sI1911
g314
sI1912
g1855
sI1913
g1856
sI1914
g1857
sI1915
g1858
sI1916
g3335
sI1917
g2552
sI1918
g1861
sI1919
g1862
sI1920
g1864
sI1921
g1865
sI1922
g1866
sI1923
g1867
sI1924
g1868
sI1925
g2553
sI1926
g1870
sI1927
g1871
sI1928
g1872
sI1929
g1874
sI1930
g1875
sI1931
g2554
sI1932
g1877
sI1933
g1878
sI1934
g2688
sI1935
g1879
sI1936
g1880
sI1937
g1881
sI1938
g2491
sI1939
g278
sI1940
g1883
sI1941
g1884
sI1942
g1885
sI1943
g2278
sI1944
g3461
sI1945
g760
sI1946
g4036
sI1947
g1888
sI1948
g1889
sI1949
g4224
sI1950
g1891
sI1951
g1893
sI1952
g2199
sI1953
g1896
sI1954
g1897
sI1955
g1898
sI1956
g1899
sI1957
g2598
sI1958
g1901
sI1959
g4460
sI1960
g1902
sI1961
g1903
sI1962
g1904
sI1963
g2086
sI1964
g147
sI1965
g1906
sI1966
g2205
sI1967
g1172
sI1968
g2659
sI1969
g1909
sI1970
g2676
sI1971
g1911
sI1972
g3569
sI1973
g1914
sI1974
g1915
sI1975
g3773
sI1976
g1916
sI1977
g1917
sI1978
g1918
sI1979
g1919
sI1980
g1920
sI1981
g1921
sI1982
g1922
sI1983
g1923
sI1984
g1924
sI1985
g1925
sI1986
g3671
sI1987
g3855
sI1988
g1926
sI1989
g1927
sI1990
g1928
sI1991
g2822
sI1992
g1930
sI1993
g4090
sI1994
g1932
sI1995
g1933
sI1996
g1934
sI1997
g1935
sI1998
g1936
sI1999
g1938
sI2000
g1939
sI2001
g1940
sI2002
g2885
sI2003
g1944
sI2004
g1945
sI2005
g2915
sI2006
g1948
sI2007
g1949
sI2008
g1950
sI2009
g1951
sI2010
g1952
sI2011
g1954
sI2012
g1955
sI2013
g1956
sI2014
g2953
sI2015
g1958
sI2016
g1959
sI2017
g1960
sI2018
g1961
sI2019
g1962
sI2020
g2567
sI2021
g1964
sI2022
g1965
sI2023
g3352
sI2024
g1967
sI2025
g1968
sI2026
g1970
sI2027
g1971
sI2028
g3056
sI2029
g1973
sI2030
g1974
sI2031
g3104
sI2032
g4381
sI2033
g3084
sI2034
g1979
sI2035
g1980
sI2036
g2601
sI2037
g3357
sI2038
g1982
sI2039
g1983
sI2040
g4095
sI2041
g1985
sI2042
g2781
sI2043
g1986
sI2044
g1987
sI2045
g4018
sI2046
g3149
sI2047
g1989
sI2048
g1990
sI2049
g1991
sI2050
g1992
sI2051
g1993
sI2052
g1994
sI2053
g1539
sI2054
g1996
sI2055
g1997
sI2056
g1998
sI2057
g1999
sI2058
g2000
sI2059
g2965
sI2060
g2003
sI2061
g2576
sI2062
g4100
sI2063
g2007
sI2064
g2008
sI2065
g2009
sI2066
g2010
sI2067
g2179
sI2068
g1062
sI2069
g3362
sI2070
g2013
sI2071
g2014
sI2072
g2015
sI2073
g2261
sI2074
g2016
sI2075
g2017
sI2076
g2523
sI2077
g2019
sI2078
g2020
sI2079
g2977
sI2080
g2021
sI2081
g2022
sI2082
g2023
sI2083
g2024
sI2084
g2025
sI2085
g2026
sI2086
g2027
sI2087
g2850
sI2088
g4236
sI2089
g3389
sI2090
g2030
sI2091
g2032
sI2092
g2033
sI2093
g2449
sI2094
g3366
sI2095
g2035
sI2096
g2036
sI2097
g2037
sI2098
g2039
sI2099
g3439
sI2100
g2041
sI2101
g2042
sI2102
g2043
sI2103
g4106
sI2104
g3471
sI2105
g2046
sI2106
g2586
sI2107
g88
sI2108
g4443
sI2109
g2257
sI2110
g2051
sI2111
g2052
sI2112
g2053
sI2113
g2054
sI2114
g2056
sI2115
g2057
sI2116
g2058
sI2117
g2059
sI2118
g2060
sI2119
g2061
sI2120
g2062
sI2121
g2063
sI2122
g2064
sI2123
g2065
sI2124
g2695
sI2125
g2067
sI2126
g2068
sI2127
g2069
sI2128
g1816
sI2129
g2070
sI2130
g1859
sI2131
g2072
sI2132
g2073
sI2133
g2075
sI2134
g2076
sI2135
g2077
sI2136
g2078
sI2137
g2079
sI2138
g3873
sI2139
g3011
sI2140
g2080
sI2141
g2082
sI2142
g2083
sI2143
g2084
sI2144
g3682
sI2145
g2087
sI2146
g2088
sI2147
g3700
sI2148
g3702
sI2149
g2092
sI2150
g2093
sI2151
g2631
sI2152
g2094
sI2153
g3736
sI2154
g4111
sI2155
g2097
sI2156
g2098
sI2157
g2099
sI2158
g2100
sI2159
g2101
sI2160
g2102
sI2161
g2129
sI2162
g2103
sI2163
g2104
sI2164
g2105
sI2165
g290
sI2166
g2107
sI2167
g2599
sI2168
g3843
sI2169
g2110
sI2170
g2111
sI2171
g3162
sI2172
g2112
sI2173
g3890
sI2174
g3410
sI2175
g3548
sI2176
g4116
sI2177
g2119
sI2178
g2120
sI2179
g452
sI2180
g2122
sI2181
g4118
sI2182
g3379
sI2183
g2125
sI2184
g2126
sI2185
g2127
sI2186
g2128
sI2187
g3902
sI2188
g2130
sI2189
g4464
sI2190
g2131
sI2191
g3993
sI2192
g2133
sI2193
g2135
sI2194
g3213
sI2195
g2137
sI2196
g2138
sI2197
g2139
sI2198
g2141
sI2199
g2142
sI2200
g4054
sI2201
g2144
sI2202
g2145
sI2203
g2146
sI2204
g2147
sI2205
g3382
sI2206
g4094
sI2207
g3383
sI2208
g1303
sI2209
g4123
sI2210
g2153
sI2211
g2154
sI2212
g2155
sI2213
g2156
sI2214
g2158
sI2215
g2159
sI2216
g2160
sI2217
g2161
sI2218
g2162
sI2219
g2163
sI2220
g2610
sI2221
g2165
sI2222
g2166
sI2223
g2611
sI2224
g2168
sI2225
g1975
sI2226
g2169
sI2227
g2170
sI2228
g32
sI2229
g2172
sI2230
g3651
sI2231
g2173
sI2232
g2174
sI2233
g1083
sI2234
g2176
sI2235
g2177
sI2236
g2178
sI2237
g4284
sI2238
g2180
sI2239
g2181
sI2240
g2182
sI2241
g2183
sI2242
g2184
sI2243
g2185
sI2244
g2186
sI2245
g2187
sI2246
g2188
sI2247
g2189
sI2248
g2190
sI2249
g2191
sI2250
g2192
sI2251
g2193
sI2252
g4360
sI2253
g2195
sI2254
g3390
sI2255
g2197
sI2256
g2198
sI2257
g4389
sI2258
g4394
sI2259
g2201
sI2260
g2202
sI2261
g2203
sI2262
g4131
sI2263
g4448
sI2264
g2206
sI2265
g312
sI2266
g4196
sI2267
g2209
sI2268
g2210
sI2269
g2211
sI2270
g2213
sI2271
g3808
sI2272
g2214
sI2273
g2215
sI2274
g2216
sI2275
g2217
sI2276
g2218
sI2277
g2219
sI2278
g12
sI2279
g390
sI2280
g2222
sI2281
g2223
sI2282
g34
sI2283
g2225
sI2284
g4109
sI2285
g44
sI2286
g2228
sI2287
g3674
sI2288
g3479
sI2289
g2232
sI2290
g2233
sI2291
g2234
sI2292
g2235
sI2293
g2236
sI2294
g2237
sI2295
g2238
sI2296
g2240
sI2297
g2241
sI2298
g2242
sI2299
g140
sI2300
g2244
sI2301
g148
sI2302
g2246
sI2303
g2247
sI2304
g3733
sI2305
g4136
sI2306
g2701
sI2307
g2249
sI2308
g2250
sI2309
g4071
sI2310
g3398
sI2311
g2253
sI2312
g2254
sI2313
g2255
sI2314
g3512
sI2315
g1977
sI2316
g2256
sI2317
g1060
sI2318
g218
sI2319
g2259
sI2320
g2260
sI2321
g4283
sI2322
g2794
sI2323
g2262
sI2324
g2263
sI2325
g2264
sI2326
g3298
sI2327
g4137
sI2328
g2268
sI2329
g2347
sI2330
g4138
sI2331
g2271
sI2332
g3185
sI2333
g2275
sI2334
g2276
sI2335
g2630
sI2336
g1190
sI2337
g2279
sI2338
g2281
sI2339
g2282
sI2340
g2283
sI2341
g2284
sI2342
g2285
sI2343
g2286
sI2344
g2287
sI2345
g2632
sI2346
g2289
sI2347
g2290
sI2348
g2292
sI2349
g2293
sI2350
g1602
sI2351
g2295
sI2352
g2296
sI2353
g2297
sI2354
g2298
sI2355
g399
sI2356
g4201
sI2357
g1846
sI2358
g1473
sI2359
g2302
sI2360
g2303
sI2361
g2304
sI2362
g2306
sI2363
g2307
sI2364
g2308
sI2365
g3696
sI2366
g2309
sI2367
g2310
sI2368
g1698
sI2369
g2313
sI2370
g2314
sI2371
g2316
sI2372
g4101
sI2373
g2317
sI2374
g2318
sI2375
g2319
sI2376
g4482
sI2377
g2321
sI2378
g2322
sI2379
g2323
sI2380
g523
sI2381
g2325
sI2382
g4212
sI2383
g3670
sI2384
g2327
sI2385
g2328
sI2386
g2329
sI2387
g2330
sI2388
g2331
sI2389
g2332
sI2390
g2333
sI2391
g3408
sI2392
g2335
sI2393
g2336
sI2394
g2337
sI2395
g3409
sI2396
g2339
sI2397
g2340
sI2398
g4151
sI2399
g642
sI2400
g2344
sI2401
g2345
sI2402
g2346
sI2403
g4174
sI2404
g2348
sI2405
g4009
sI2406
g2350
sI2407
g2351
sI2408
g2352
sI2409
g2353
sI2410
g2354
sI2411
g739
sI2412
g2356
sI2413
g3634
sI2414
g2357
sI2415
g2863
sI2416
g2358
sI2417
g2359
sI2418
g2360
sI2419
g3443
sI2420
g4088
sI2421
g799
sI2422
g2363
sI2423
g2364
sI2424
g2366
sI2425
g2367
sI2426
g1244
sI2427
g261
sI2428
g3604
sI2429
g2370
sI2430
g2371
sI2431
g2372
sI2432
g4433
sI2433
g2374
sI2434
g2375
sI2435
g22
sI2436
g2378
sI2437
g2379
sI2438
g883
sI2439
g798
sI2440
g2382
sI2441
g2649
sI2442
g2384
sI2443
g4380
sI2444
g2386
sI2445
g2985
sI2446
g2387
sI2447
g2389
sI2448
g1409
sI2449
g3420
sI2450
g2394
sI2451
g378
sI2452
g2396
sI2453
g2397
sI2454
g2398
sI2455
g2399
sI2456
g2400
sI2457
g2401
sI2458
g2402
sI2459
g2403
sI2460
g2404
sI2461
g2406
sI2462
g2407
sI2463
g2408
sI2464
g2409
sI2465
g3724
sI2466
g2410
sI2467
g4180
sI2468
g2412
sI2469
g2413
sI2470
g2415
sI2471
g1343
sI2472
g1066
sI2473
g2418
sI2474
g2377
sI2475
g2420
sI2476
g2655
sI2477
g2422
sI2478
g2423
sI2479
g2424
sI2480
g1624
sI2481
g2426
sI2482
g2656
sI2483
g2428
sI2484
g3426
sI2485
g2908
sI2486
g2430
sI2487
g1143
sI2488
g1147
sI2489
g3582
sI2490
g3573
sI2491
g1156
sI2492
g2436
sI2493
g2437
sI2494
g2438
sI2495
g1174
sI2496
g464
sI2497
g3429
sI2498
g2441
sI2499
g2660
sI2500
g2443
sI2501
g4168
sI2502
g1200
sI2503
g2445
sI2504
g3270
sI2505
g2447
sI2506
g2663
sI2507
g2896
sI2508
g2664
sI2509
g2451
sI2510
g2452
sI2511
g2453
sI2512
g2454
sI2513
g2455
sI2514
g2665
sI2515
g2459
sI2516
g2461
sI2517
g2462
sI2518
g4172
sI2519
g2464
sI2520
g2465
sI2521
g4032
sI2522
g2468
sI2523
g2469
sI2524
g2470
sI2525
g2471
sI2526
g2667
sI2527
g1379
sI2528
g3791
sI2529
g3435
sI2530
g2475
sI2531
g2476
sI2532
g2477
sI2533
g2479
sI2534
g2480
sI2535
g1424
sI2536
g2483
sI2537
g2484
sI2538
g2485
sI2539
g2486
sI2540
g2487
sI2541
g4318
sI2542
g1472
sI2543
g4301
sI2544
g2489
sI2545
g2490
sI2546
g1495
sI2547
g334
sI2548
g2493
sI2549
g2494
sI2550
g2495
sI2551
g2496
sI2552
g2239
sI2553
g2498
sI2554
g2499
sI2555
g2500
sI2556
g2501
sI2557
g3215
sI2558
g2503
sI2559
g2504
sI2560
g2505
sI2561
g2506
sI2562
g2507
sI2563
g2508
sI2564
g2463
sI2565
g2509
sI2566
g2031
sI2567
g2511
sI2568
g1650
sI2569
g2513
sI2570
g3518
sI2571
g2515
sI2572
g2516
sI2573
g2517
sI2574
g2518
sI2575
g671
sI2576
g2520
sI2577
g1266
sI2578
g2522
sI2579
g2018
sI2580
g4483
sI2581
g2679
sI2582
g2526
sI2583
g1728
sI2584
g2528
sI2585
g740
sI2586
g1735
sI2587
g2531
sI2588
g4285
sI2589
g2532
sI2590
g2533
sI2591
g4117
sI2592
g2535
sI2593
g2305
sI2594
g1774
sI2595
g2538
sI2596
g1784
sI2597
g1789
sI2598
g4295
sI2599
g2684
sI2600
g2543
sI2601
g2544
sI2602
g3445
sI2603
g2546
sI2604
g2548
sI2605
g2149
sI2606
g2550
sI2607
g2551
sI2608
g1860
sI2609
g1869
sI2610
g1876
sI2611
g2555
sI2612
g2556
sI2613
g3836
sI2614
g2557
sI2615
g2558
sI2616
g2811
sI2617
g2560
sI2618
g1912
sI2619
g2562
sI2620
g2563
sI2621
g2564
sI2622
g3402
sI2623
g2565
sI2624
g1963
sI2625
g2568
sI2626
g2569
sI2627
g2570
sI2628
g3299
sI2629
g3010
sI2630
g2573
sI2631
g1325
sI2632
g2005
sI2633
g2577
sI2634
g1798
sI2635
g2580
sI2636
g2581
sI2637
g3337
sI2638
g2583
sI2639
g2584
sI2640
g3516
sI2641
g2047
sI2642
g2050
sI2643
g2588
sI2644
g2589
sI2645
g2071
sI2646
g2591
sI2647
g627
sI2648
g2593
sI2649
g2595
sI2650
g2596
sI2651
g2597
sI2652
g1937
sI2653
g2108
sI2654
g2600
sI2655
g2116
sI2656
g2602
sI2657
g2603
sI2658
g2604
sI2659
g2605
sI2660
g2606
sI2661
g2607
sI2662
g2608
sI2663
g2609
sI2664
g2164
sI2665
g2167
sI2666
g2612
sI2667
g624
sI2668
g2613
sI2669
g2614
sI2670
g2615
sI2671
g2616
sI2672
g2617
sI2673
g2618
sI2674
g2619
sI2675
g4190
sI2676
g3458
sI2677
g2622
sI2678
g2624
sI2679
g2625
sI2680
g2626
sI2681
g2627
sI2682
g2628
sI2683
g4354
sI2684
g2277
sI2685
g2280
sI2686
g469
sI2687
g2288
sI2688
g2633
sI2689
g2634
sI2690
g2635
sI2691
g2637
sI2692
g2640
sI2693
g3394
sI2694
g2642
sI2695
g2643
sI2696
g3991
sI2697
g2645
sI2698
g2646
sI2699
g4320
sI2700
g2647
sI2701
g2648
sI2702
g2383
sI2703
g2650
sI2704
g2651
sI2705
g2652
sI2706
g2653
sI2707
g2414
sI2708
g2421
sI2709
g2427
sI2710
g2658
sI2711
g4195
sI2712
g2442
sI2713
g2661
sI2714
g2448
sI2715
g2450
sI2716
g2458
sI2717
g2666
sI2718
g3302
sI2719
g2669
sI2720
g2670
sI2721
g2671
sI2722
g1071
sI2723
g3520
sI2724
g2704
sI2725
g2675
sI2726
g4298
sI2727
g2677
sI2728
g2678
sI2729
g2525
sI2730
g2680
sI2731
g2681
sI2732
g3371
sI2733
g2683
sI2734
g1307
sI2735
g2685
sI2736
g2686
sI2737
g2657
sI2738
g3341
sI2739
g2689
sI2740
g2690
sI2741
g2691
sI2742
g2692
sI2743
g3064
sI2744
g2694
sI2745
g2696
sI2746
g2697
sI2747
g2698
sI2748
g2700
sI2749
g214
sI2750
g2674
sI2751
g3466
sI2752
g2706
sI2753
g1237
sI2754
g2708
sI2755
g2709
sI2756
g3467
sI2757
g2711
sI2758
g2712
sI2759
g2713
sI2760
g2714
sI2761
g2715
sI2762
g2716
sI2763
g4068
sI2764
g3468
sI2765
g2717
sI2766
g3082
sI2767
g3469
sI2768
g2721
sI2769
g2722
sI2770
g2723
sI2771
g1171
sI2772
g2724
sI2773
g2725
sI2774
g2726
sI2775
g2816
sI2776
g2728
sI2777
g2729
sI2778
g2730
sI2779
g2731
sI2780
g2732
sI2781
g2733
sI2782
g4400
sI2783
g170
sI2784
g2735
sI2785
g2736
sI2786
g2737
sI2787
g2738
sI2788
g2739
sI2789
g2740
sI2790
g2741
sI2791
g2742
sI2792
g2743
sI2793
g2744
sI2794
g2745
sI2795
g2746
sI2796
g2931
sI2797
g2749
sI2798
g2750
sI2799
g4211
sI2800
g2751
sI2801
g2152
sI2802
g3050
sI2803
g2753
sI2804
g2754
sI2805
g2755
sI2806
g2756
sI2807
g2718
sI2808
g2757
sI2809
g2758
sI2810
g2759
sI2811
g2760
sI2812
g2761
sI2813
g2762
sI2814
g3611
sI2815
g2764
sI2816
g2766
sI2817
g3028
sI2818
g2768
sI2819
g2769
sI2820
g2770
sI2821
g2771
sI2822
g2772
sI2823
g2773
sI2824
g2774
sI2825
g2775
sI2826
g3804
sI2827
g4215
sI2828
g2777
sI2829
g582
sI2830
g2779
sI2831
g2780
sI2832
g3113
sI2833
g2782
sI2834
g2783
sI2835
g3664
sI2836
g2784
sI2837
g2785
sI2838
g2786
sI2839
g682
sI2840
g2787
sI2841
g2788
sI2842
g2789
sI2843
g2790
sI2844
g2791
sI2845
g2792
sI2846
g3214
sI2847
g663
sI2848
g780
sI2849
g2795
sI2850
g4324
sI2851
g2997
sI2852
g2797
sI2853
g2798
sI2854
g2799
sI2855
g2800
sI2856
g1754
sI2857
g2801
sI2858
g2802
sI2859
g2803
sI2860
g3454
sI2861
g3304
sI2862
g3321
sI2863
g3484
sI2864
g2807
sI2865
g4222
sI2866
g2809
sI2867
g2810
sI2868
g3351
sI2869
g2812
sI2870
g3259
sI2871
g4223
sI2872
g2814
sI2873
g2815
sI2874
g234
sI2875
g2817
sI2876
g3486
sI2877
g446
sI2878
g2821
sI2879
g3022
sI2880
g1400
sI2881
g2823
sI2882
g2824
sI2883
g2825
sI2884
g3487
sI2885
g2827
sI2886
g2828
sI2887
g2829
sI2888
g2830
sI2889
g4012
sI2890
g2832
sI2891
g2833
sI2892
g2834
sI2893
g2835
sI2894
g2836
sI2895
g2837
sI2896
g2838
sI2897
g2839
sI2898
g2840
sI2899
g3511
sI2900
g2842
sI2901
g2845
sI2902
g2846
sI2903
g2847
sI2904
g2848
sI2905
g2849
sI2906
g3889
sI2907
g3574
sI2908
g2851
sI2909
g1262
sI2910
g2853
sI2911
g2854
sI2912
g4027
sI2913
g1040
sI2914
g2856
sI2915
g2857
sI2916
g3617
sI2917
g2860
sI2918
g355
sI2919
g2862
sI2920
g4233
sI2921
g2864
sI2922
g4234
sI2923
g2866
sI2924
g2270
sI2925
g2702
sI2926
g3663
sI2927
g2869
sI2928
g2870
sI2929
g2871
sI2930
g2872
sI2931
g2873
sI2932
g4492
sI2933
g2874
sI2934
g2875
sI2935
g3735
sI2936
g2876
sI2937
g2877
sI2938
g2878
sI2939
g2879
sI2940
g2880
sI2941
g702
sI2942
g2882
sI2943
g3785
sI2944
g2884
sI2945
g3806
sI2946
g2886
sI2947
g2887
sI2948
g2888
sI2949
g2890
sI2950
g2891
sI2951
g2892
sI2952
g2893
sI2953
g2894
sI2954
g2895
sI2955
g2898
sI2956
g2899
sI2957
g2900
sI2958
g2901
sI2959
g2902
sI2960
g1360
sI2961
g2903
sI2962
g2904
sI2963
g4240
sI2964
g2906
sI2965
g4286
sI2966
g3961
sI2967
g2909
sI2968
g2910
sI2969
g2911
sI2970
g4243
sI2971
g2913
sI2972
g2914
sI2973
g2916
sI2974
g2917
sI2975
g2918
sI2976
g3976
sI2977
g2919
sI2978
g2920
sI2979
g2921
sI2980
g2922
sI2981
g2923
sI2982
g2925
sI2983
g4517
sI2984
g2927
sI2985
g4078
sI2986
g2929
sI2987
g2930
sI2988
g4128
sI2989
g1208
sI2990
g2932
sI2991
g2934
sI2992
g2935
sI2993
g2936
sI2994
g2937
sI2995
g2938
sI2996
g2939
sI2997
g1296
sI2998
g2941
sI2999
g2943
sI3000
g3189
sI3001
g2946
sI3002
g2947
sI3003
g2948
sI3004
g2949
sI3005
g2950
sI3006
g2951
sI3007
g2673
sI3008
g3635
sI3009
g2954
sI3010
g2955
sI3011
g2956
sI3012
g2957
sI3013
g4251
sI3014
g2959
sI3015
g2720
sI3016
g2752
sI3017
g2961
sI3018
g2962
sI3019
g2963
sI3020
g2964
sI3021
g3399
sI3022
g245
sI3023
g2967
sI3024
g2968
sI3025
g2970
sI3026
g2971
sI3027
g2972
sI3028
g2973
sI3029
g2974
sI3030
g2975
sI3031
g4254
sI3032
g4370
sI3033
g2978
sI3034
g2979
sI3035
g2980
sI3036
g3591
sI3037
g2982
sI3038
g2983
sI3039
g2984
sI3040
g1782
sI3041
g2986
sI3042
g2987
sI3043
g4454
sI3044
g2989
sI3045
g2990
sI3046
g2992
sI3047
g2993
sI3048
g2994
sI3049
g2995
sI3050
g2996
sI3051
g1373
sI3052
g2998
sI3053
g2999
sI3054
g3000
sI3055
g3001
sI3056
g4467
sI3057
g3005
sI3058
g3006
sI3059
g3007
sI3060
g3008
sI3061
g3884
sI3062
g43
sI3063
g2818
sI3064
g4114
sI3065
g60
sI3066
g1063
sI3067
g1947
sI3068
g3016
sI3069
g4261
sI3070
g3882
sI3071
g3019
sI3072
g2859
sI3073
g3514
sI3074
g3229
sI3075
g3024
sI3076
g3025
sI3077
g3026
sI3078
g160
sI3079
g167
sI3080
g3163
sI3081
g3030
sI3082
g612
sI3083
g3032
sI3084
g683
sI3085
g3034
sI3086
g4265
sI3087
g4378
sI3088
g3037
sI3089
g3038
sI3090
g3039
sI3091
g3040
sI3092
g3041
sI3093
g3042
sI3094
g3043
sI3095
g3044
sI3096
g3881
sI3097
g3046
sI3098
g3047
sI3099
g3048
sI3100
g3049
sI3101
g1301
sI3102
g3051
sI3103
g4268
sI3104
g3053
sI3105
g3249
sI3106
g321
sI3107
g3057
sI3108
g3058
sI3109
g3059
sI3110
g3060
sI3111
g3061
sI3112
g3062
sI3113
g3063
sI3114
g3544
sI3115
g3065
sI3116
g3066
sI3117
g1863
sI3118
g3068
sI3119
g3069
sI3120
g3070
sI3121
g398
sI3122
g3072
sI3123
g3073
sI3124
g992
sI3125
g3075
sI3126
g857
sI3127
g3077
sI3128
g3078
sI3129
g3079
sI3130
g3080
sI3131
g3081
sI3132
g3003
sI3133
g3083
sI3134
g3911
sI3135
g3085
sI3136
g3086
sI3137
g3087
sI3138
g3088
sI3139
g3089
sI3140
g3090
sI3141
g3091
sI3142
g3092
sI3143
g4344
sI3144
g4514
sI3145
g3095
sI3146
g3096
sI3147
g3098
sI3148
g3099
sI3149
g3100
sI3150
g3101
sI3151
g540
sI3152
g3103
sI3153
g3144
sI3154
g4466
sI3155
g1369
sI3156
g3106
sI3157
g3107
sI3158
g581
sI3159
g3109
sI3160
g3110
sI3161
g3856
sI3162
g3112
sI3163
g254
sI3164
g3114
sI3165
g3115
sI3166
g3116
sI3167
g3117
sI3168
g3118
sI3169
g3119
sI3170
g659
sI3171
g3121
sI3172
g3122
sI3173
g3123
sI3174
g3124
sI3175
g3125
sI3176
g3126
sI3177
g3127
sI3178
g3128
sI3179
g3129
sI3180
g3130
sI3181
g3131
sI3182
g3132
sI3183
g735
sI3184
g3135
sI3185
g3136
sI3186
g3137
sI3187
g72
sI3188
g3139
sI3189
g3140
sI3190
g3141
sI3191
g1070
sI3192
g2114
sI3193
g3143
sI3194
g3145
sI3195
g3146
sI3196
g1803
sI3197
g1413
sI3198
g821
sI3199
g3150
sI3200
g3151
sI3201
g3152
sI3202
g3153
sI3203
g3154
sI3204
g3320
sI3205
g845
sI3206
g4242
sI3207
g3157
sI3208
g3158
sI3209
g3159
sI3210
g3160
sI3211
g3161
sI3212
g3206
sI3213
g2541
sI3214
g881
sI3215
g3165
sI3216
g3166
sI3217
g3167
sI3218
g3168
sI3219
g3169
sI3220
g3170
sI3221
g3534
sI3222
g919
sI3223
g3173
sI3224
g1179
sI3225
g2907
sI3226
g3176
sI3227
g3177
sI3228
g3178
sI3229
g3180
sI3230
g3181
sI3231
g3182
sI3232
g3183
sI3233
g1679
sI3234
g3296
sI3235
g1001
sI3236
g3188
sI3237
g4488
sI3238
g3190
sI3239
g3191
sI3240
g3537
sI3241
g3193
sI3242
g3194
sI3243
g3195
sI3244
g3196
sI3245
g3197
sI3246
g1050
sI3247
g3995
sI3248
g3200
sI3249
g3201
sI3250
g3052
sI3251
g3202
sI3252
g3815
sI3253
g865
sI3254
g4312
sI3255
g3207
sI3256
g3542
sI3257
g3208
sI3258
g3209
sI3259
g3210
sI3260
g4006
sI3261
g3900
sI3262
g1012
sI3263
g1182
sI3264
g3216
sI3265
g3970
sI3266
g3787
sI3267
g4341
sI3268
g3220
sI3269
g3221
sI3270
g3222
sI3271
g3223
sI3272
g3225
sI3273
g3226
sI3274
g232
sI3275
g3228
sI3276
g3545
sI3277
g3230
sI3278
g3232
sI3279
g3233
sI3280
g4150
sI3281
g1299
sI3282
g1308
sI3283
g3236
sI3284
g3237
sI3285
g3238
sI3286
g3239
sI3287
g3555
sI3288
g3241
sI3289
g3242
sI3290
g3243
sI3291
g4214
sI3292
g3244
sI3293
g480
sI3294
g3246
sI3295
g1363
sI3296
g3248
sI3297
g3547
sI3298
g3251
sI3299
g3252
sI3300
g2572
sI3301
g3397
sI3302
g1408
sI3303
g3256
sI3304
g3257
sI3305
g3258
sI3306
g4299
sI3307
g3260
sI3308
g3261
sI3309
g3262
sI3310
g3263
sI3311
g3264
sI3312
g962
sI3313
g3451
sI3314
g3267
sI3315
g3268
sI3316
g3269
sI3317
g3624
sI3318
g1504
sI3319
g3272
sI3320
g3273
sI3321
g3274
sI3322
g3275
sI3323
g3276
sI3324
g1540
sI3325
g3278
sI3326
g3279
sI3327
g1553
sI3328
g3281
sI3329
g3282
sI3330
g3283
sI3331
g3284
sI3332
g3285
sI3333
g4456
sI3334
g3287
sI3335
g3289
sI3336
g3290
sI3337
g3291
sI3338
g3292
sI3339
g1621
sI3340
g4035
sI3341
g3295
sI3342
g3297
sI3343
g3301
sI3344
g3783
sI3345
g3303
sI3346
g1672
sI3347
g3305
sI3348
g3306
sI3349
g3307
sI3350
g3308
sI3351
g3309
sI3352
g3310
sI3353
g2118
sI3354
g3311
sI3355
g2466
sI3356
g3313
sI3357
g3314
sI3358
g1727
sI3359
g4305
sI3360
g3317
sI3361
g3318
sI3362
g3319
sI3363
g3810
sI3364
g2748
sI3365
g3322
sI3366
g972
sI3367
g3324
sI3368
g3325
sI3369
g3326
sI3370
g3327
sI3371
g3329
sI3372
g1821
sI3373
g1345
sI3374
g3332
sI3375
g4384
sI3376
g3654
sI3377
g2095
sI3378
g3336
sI3379
g63
sI3380
g3338
sI3381
g3339
sI3382
g3340
sI3383
g1886
sI3384
g3342
sI3385
g3343
sI3386
g3345
sI3387
g3346
sI3388
g3347
sI3389
g3348
sI3390
g3349
sI3391
g3350
sI3392
g4457
sI3393
g1966
sI3394
g3353
sI3395
g3354
sI3396
g3355
sI3397
g3356
sI3398
g4122
sI3399
g3358
sI3400
g3359
sI3401
g3360
sI3402
g3361
sI3403
g2011
sI3404
g3363
sI3405
g3364
sI3406
g3365
sI3407
g2034
sI3408
g3367
sI3409
g3368
sI3410
g3369
sI3411
g3370
sI3412
g1526
sI3413
g3372
sI3414
g3373
sI3415
g3374
sI3416
g4477
sI3417
g3375
sI3418
g2958
sI3419
g3570
sI3420
g3377
sI3421
g3378
sI3422
g2124
sI3423
g3380
sI3424
g3381
sI3425
g2148
sI3426
g2267
sI3427
g3571
sI3428
g3385
sI3429
g3386
sI3430
g3387
sI3431
g3388
sI3432
g2566
sI3433
g1895
sI3434
g4259
sI3435
g3391
sI3436
g3393
sI3437
g3541
sI3438
g769
sI3439
g2252
sI3440
g4154
sI3441
g3400
sI3442
g3401
sI3443
g196
sI3444
g3403
sI3445
g2315
sI3446
g3405
sI3447
g3406
sI3448
g3407
sI3449
g2334
sI3450
g2338
sI3451
g4339
sI3452
g3411
sI3453
g3413
sI3454
g1953
sI3455
g3415
sI3456
g1628
sI3457
g3417
sI3458
g3418
sI3459
g3419
sI3460
g2392
sI3461
g3421
sI3462
g3422
sI3463
g3423
sI3464
g3424
sI3465
g3425
sI3466
g2429
sI3467
g3427
sI3468
g3428
sI3469
g4368
sI3470
g3430
sI3471
g3431
sI3472
g3432
sI3473
g3433
sI3474
g3434
sI3475
g3978
sI3476
g3436
sI3477
g3437
sI3478
g3438
sI3479
g4416
sI3480
g3441
sI3481
g3442
sI3482
g3444
sI3483
g3502
sI3484
g3446
sI3485
g3447
sI3486
g3448
sI3487
g3449
sI3488
g3450
sI3489
g4208
sI3490
g294
sI3491
g2594
sI3492
g3455
sI3493
g2621
sI3494
g1854
sI3495
g3459
sI3496
g3460
sI3497
g2579
sI3498
g3462
sI3499
g3463
sI3500
g3464
sI3501
g3465
sI3502
g2705
sI3503
g2710
sI3504
g3847
sI3505
g2719
sI3506
g3470
sI3507
g323
sI3508
g2074
sI3509
g3473
sI3510
g3474
sI3511
g3475
sI3512
g2668
sI3513
g3477
sI3514
g3480
sI3515
g3481
sI3516
g910
sI3517
g3483
sI3518
g2806
sI3519
g3485
sI3520
g2819
sI3521
g2826
sI3522
g3488
sI3523
g3489
sI3524
g3491
sI3525
g3492
sI3526
g831
sI3527
g3494
sI3528
g3495
sI3529
g3496
sI3530
g3588
sI3531
g3498
sI3532
g3499
sI3533
g3500
sI3534
g3501
sI3535
g3812
sI3536
g3503
sI3537
g3504
sI3538
g2940
sI3539
g3506
sI3540
g3507
sI3541
g3509
sI3542
g3510
sI3543
g892
sI3544
g3002
sI3545
g3513
sI3546
g3021
sI3547
g3515
sI3548
g3344
sI3549
g3517
sI3550
g4521
sI3551
g3519
sI3552
g4345
sI3553
g3097
sI3554
g3977
sI3555
g3522
sI3556
g3523
sI3557
g3524
sI3558
g3525
sI3559
g2765
sI3560
g3527
sI3561
g3528
sI3562
g3529
sI3563
g3530
sI3564
g3531
sI3565
g3532
sI3566
g3171
sI3567
g3535
sI3568
g3536
sI3569
g3192
sI3570
g3538
sI3571
g489
sI3572
g4108
sI3573
g319
sI3574
g4237
sI3575
g3543
sI3576
g1292
sI3577
g3250
sI3578
g3549
sI3579
g4353
sI3580
g3551
sI3581
g3552
sI3582
g3554
sI3583
g2585
sI3584
g3556
sI3585
g3559
sI3586
g3560
sI3587
g3561
sI3588
g3562
sI3589
g3563
sI3590
g3565
sI3591
g574
sI3592
g3567
sI3593
g3568
sI3594
g3224
sI3595
g1820
sI3596
g3384
sI3597
g2905
sI3598
g3395
sI3599
g2272
sI3600
g3575
sI3601
g3576
sI3602
g4323
sI3603
g3577
sI3604
g3578
sI3605
g3579
sI3606
g3581
sI3607
g3926
sI3608
g3584
sI3609
g1563
sI3610
g3585
sI3611
g3599
sI3612
g3587
sI3613
g3497
sI3614
g4155
sI3615
g3508
sI3616
g2134
sI3617
g3593
sI3618
g3594
sI3619
g720
sI3620
g3596
sI3621
g3597
sI3622
g1807
sI3623
g2855
sI3624
g3601
sI3625
g3603
sI3626
g1097
sI3627
g4361
sI3628
g3606
sI3629
g3607
sI3630
g3608
sI3631
g3609
sI3632
g3610
sI3633
g3612
sI3634
g4156
sI3635
g3613
sI3636
g3828
sI3637
g3614
sI3638
g3615
sI3639
g3616
sI3640
g3672
sI3641
g3618
sI3642
g3619
sI3643
g3620
sI3644
g3621
sI3645
g3622
sI3646
g3623
sI3647
g1375
sI3648
g3625
sI3649
g3626
sI3650
g3627
sI3651
g3834
sI3652
g3628
sI3653
g3629
sI3654
g3630
sI3655
g3631
sI3656
g3632
sI3657
g2273
sI3658
g3636
sI3659
g3637
sI3660
g3638
sI3661
g3639
sI3662
g3640
sI3663
g3641
sI3664
g3642
sI3665
g3643
sI3666
g3644
sI3667
g3645
sI3668
g3646
sI3669
g3647
sI3670
g3648
sI3671
g3649
sI3672
g3650
sI3673
g3265
sI3674
g3929
sI3675
g3652
sI3676
g3686
sI3677
g3655
sI3678
g3656
sI3679
g3657
sI3680
g2969
sI3681
g3660
sI3682
g3661
sI3683
g3662
sI3684
g1618
sI3685
g3999
sI3686
g4275
sI3687
g3665
sI3688
g3666
sI3689
g3667
sI3690
g3668
sI3691
g3669
sI3692
g3633
sI3693
g1100
sI3694
g3673
sI3695
g2196
sI3696
g3675
sI3697
g3676
sI3698
g3677
sI3699
g3678
sI3700
g3679
sI3701
g3680
sI3702
g4403
sI3703
g3683
sI3704
g2843
sI3705
g3685
sI3706
g3687
sI3707
g3688
sI3708
g3689
sI3709
g3690
sI3710
g3691
sI3711
g3692
sI3712
g3693
sI3713
g3694
sI3714
g3695
sI3715
g3392
sI3716
g15
sI3717
g3698
sI3718
g3699
sI3719
g4247
sI3720
g4392
sI3721
g2547
sI3722
g3703
sI3723
g3704
sI3724
g4282
sI3725
g3706
sI3726
g3707
sI3727
g3709
sI3728
g3710
sI3729
g3711
sI3730
g3712
sI3731
g3713
sI3732
g3714
sI3733
g3715
sI3734
g3716
sI3735
g3717
sI3736
g3719
sI3737
g3720
sI3738
g3722
sI3739
g3723
sI3740
g3817
sI3741
g3725
sI3742
g3726
sI3743
g3328
sI3744
g3729
sI3745
g3730
sI3746
g3731
sI3747
g3732
sI3748
g4445
sI3749
g3734
sI3750
g3807
sI3751
g2831
sI3752
g3738
sI3753
g3739
sI3754
g4415
sI3755
g2096
sI3756
g3740
sI3757
g4506
sI3758
g3742
sI3759
g4388
sI3760
g3744
sI3761
g3745
sI3762
g3746
sI3763
g1758
sI3764
g4008
sI3765
g640
sI3766
g3749
sI3767
g3750
sI3768
g3751
sI3769
g3752
sI3770
g3753
sI3771
g3754
sI3772
g3755
sI3773
g3756
sI3774
g3757
sI3775
g3758
sI3776
g3759
sI3777
g3760
sI3778
g4352
sI3779
g3761
sI3780
g886
sI3781
g4421
sI3782
g4015
sI3783
g3762
sI3784
g3763
sI3785
g3764
sI3786
g3765
sI3787
g3766
sI3788
g3767
sI3789
g3768
sI3790
g3769
sI3791
g3770
sI3792
g3771
sI3793
g1635
sI3794
g3774
sI3795
g3775
sI3796
g3776
sI3797
g3777
sI3798
g4133
sI3799
g208
sI3800
g3779
sI3801
g3780
sI3802
g3781
sI3803
g3782
sI3804
g528
sI3805
g257
sI3806
g664
sI3807
g273
sI3808
g3786
sI3809
g282
sI3810
g3788
sI3811
g680
sI3812
g3789
sI3813
g3790
sI3814
g1747
sI3815
g2207
sI3816
g3793
sI3817
g322
sI3818
g3795
sI3819
g3796
sI3820
g3797
sI3821
g3798
sI3822
g4438
sI3823
g3800
sI3824
g3801
sI3825
g3802
sI3826
g3803
sI3827
g4401
sI3828
g3805
sI3829
g592
sI3830
g379
sI3831
g219
sI3832
g3809
sI3833
g192
sI3834
g4497
sI3835
g3813
sI3836
g3814
sI3837
g1559
sI3838
g3816
sI3839
g438
sI3840
g3819
sI3841
g3820
sI3842
g447
sI3843
g3564
sI3844
g3823
sI3845
g460
sI3846
g442
sI3847
g2991
sI3848
g3827
sI3849
g1573
sI3850
g3829
sI3851
g3830
sI3852
g3831
sI3853
g3832
sI3854
g3833
sI3855
g2341
sI3856
g3835
sI3857
g2820
sI3858
g3837
sI3859
g4406
sI3860
g3839
sI3861
g3840
sI3862
g531
sI3863
g3842
sI3864
g536
sI3865
g3844
sI3866
g3846
sI3867
g2889
sI3868
g1457
sI3869
g4225
sI3870
g559
sI3871
g3851
sI3872
g3852
sI3873
g3853
sI3874
g3854
sI3875
g4040
sI3876
g1799
sI3877
g4373
sI3878
g3857
sI3879
g3858
sI3880
g3859
sI3881
g3860
sI3882
g2388
sI3883
g3558
sI3884
g4412
sI3885
g3866
sI3886
g2852
sI3887
g4141
sI3888
g3870
sI3889
g1584
sI3890
g3872
sI3891
g1090
sI3892
g3874
sI3893
g3875
sI3894
g4414
sI3895
g1589
sI3896
g3877
sI3897
g3878
sI3898
g3879
sI3899
g2467
sI3900
g810
sI3901
g3883
sI3902
g3885
sI3903
g4450
sI3904
g3887
sI3905
g3888
sI3906
g783
sI3907
g789
sI3908
g3891
sI3909
g3892
sI3910
g3893
sI3911
g578
sI3912
g3894
sI3913
g4500
sI3914
g4124
sI3915
g3896
sI3916
g3897
sI3917
g3898
sI3918
g3899
sI3919
g461
sI3920
g2291
sI3921
g871
sI3922
g3903
sI3923
g3253
sI3924
g3905
sI3925
g898
sI3926
g3907
sI3927
g3908
sI3928
g3909
sI3929
g3910
sI3930
g1094
sI3931
g3912
sI3932
g3913
sI3933
g929
sI3934
g932
sI3935
g3659
sI3936
g3917
sI3937
g3918
sI3938
g3919
sI3939
g3920
sI3940
g4147
sI3941
g3922
sI3942
g3333
sI3943
g4209
sI3944
g3924
sI3945
g3590
sI3946
g3925
sI3947
g3212
sI3948
g3927
sI3949
g4408
sI3950
g2662
sI3951
g2944
sI3952
g3931
sI3953
g3932
sI3954
g3933
sI3955
g3934
sI3956
g1041
sI3957
g3936
sI3958
g1067
sI3959
g3939
sI3960
g3940
sI3961
g2312
sI3962
g3942
sI3963
g3943
sI3964
g3944
sI3965
g3945
sI3966
g3203
sI3967
g3947
sI3968
g2460
sI3969
g1123
sI3970
g3950
sI3971
g1136
sI3972
g3952
sI3973
g3953
sI3974
g3954
sI3975
g3955
sI3976
g3956
sI3977
g3959
sI3978
g3960
sI3979
g3962
sI3980
g3963
sI3981
g3964
sI3982
g1202
sI3983
g2029
sI3984
g3967
sI3985
g3968
sI3986
g3969
sI3987
g4375
sI3988
g3971
sI3989
g3972
sI3990
g3973
sI3991
g363
sI3992
g1269
sI3993
g3937
sI3994
g3845
sI3995
g1281
sI3996
g3979
sI3997
g3980
sI3998
g3981
sI3999
g3727
sI4000
g3983
sI4001
g3984
sI4002
g4434
sI4003
g1613
sI4004
g3987
sI4005
g3988
sI4006
g3989
sI4007
g3990
sI4008
g4110
sI4009
g3992
sI4010
g2085
sI4011
g3994
sI4012
g3996
sI4013
g3997
sI4014
g3998
sI4015
g708
sI4016
g829
sI4017
g4001
sI4018
g2699
sI4019
g1422
sI4020
g4004
sI4021
g4005
sI4022
g1536
sI4023
g2952
sI4024
g4041
sI4025
g4010
sI4026
g4011
sI4027
g1942
sI4028
g4013
sI4029
g4014
sI4030
g834
sI4031
g730
sI4032
g4016
sI4033
g4440
sI4034
g2638
sI4035
g4019
sI4036
g4020
sI4037
g4021
sI4038
g4022
sI4039
g3708
sI4040
g4024
sI4041
g4025
sI4042
g11
sI4043
g3288
sI4044
g4028
sI4045
g4030
sI4046
g4031
sI4047
g1614
sI4048
g4033
sI4049
g4034
sI4050
g1637
sI4051
g4432
sI4052
g1651
sI4053
g4329
sI4054
g1502
sI4055
g4042
sI4056
g4356
sI4057
g4045
sI4058
g4046
sI4059
g4048
sI4060
g4049
sI4061
g4050
sI4062
g4051
sI4063
g4052
sI4064
g4053
sI4065
g1638
sI4066
g4055
sI4067
g1737
sI4068
g4057
sI4069
g4058
sI4070
g2926
sI4071
g1753
sI4072
g4357
sI4073
g4411
sI4074
g4064
sI4075
g1775
sI4076
g4157
sI4077
g4066
sI4078
g4067
sI4079
g2623
sI4080
g4069
sI4081
g4070
sI4082
g1812
sI4083
g4072
sI4084
g4073
sI4085
g4074
sI4086
g4075
sI4087
g4076
sI4088
g4077
sI4089
g550
sI4090
g4079
sI4091
g4080
sI4092
g4081
sI4093
g3865
sI4094
g4083
sI4095
g2478
sI4096
g4085
sI4097
g4086
sI4098
g4087
sI4099
g2796
sI4100
g4089
sI4101
g1931
sI4102
g4091
sI4103
g4092
sI4104
g4093
sI4105
g1976
sI4106
g3452
sI4107
g4096
sI4108
g4097
sI4109
g4098
sI4110
g4099
sI4111
g2006
sI4112
g2012
sI4113
g4103
sI4114
g4104
sI4115
g4105
sI4116
g738
sI4117
g4107
sI4118
g3957
sI4119
g1178
sI4120
g3457
sI4121
g4358
sI4122
g4455
sI4123
g4115
sI4124
g2912
sI4125
g2121
sI4126
g2123
sI4127
g4524
sI4128
g4120
sI4129
g4121
sI4130
g3540
sI4131
g947
sI4132
g4125
sI4133
g4126
sI4134
g4127
sI4135
g557
sI4136
g4129
sI4137
g2405
sI4138
g2204
sI4139
g4132
sI4140
g4463
sI4141
g4134
sI4142
g4135
sI4143
g2248
sI4144
g4164
sI4145
g656
sI4146
g2266
sI4147
g2004
sI4148
g4139
sI4149
g4140
sI4150
g3958
sI4151
g4142
sI4152
g4143
sI4153
g4144
sI4154
g4145
sI4155
g4146
sI4156
g2320
sI4157
g4249
sI4158
g4149
sI4159
g790
sI4160
g2342
sI4161
g4152
sI4162
g3867
sI4163
g3533
sI4164
g1387
sI4165
g2385
sI4166
g4158
sI4167
g4159
sI4168
g4160
sI4169
g4161
sI4170
g4162
sI4171
g4163
sI4172
g2682
sI4173
g4165
sI4174
g4166
sI4175
g4167
sI4176
g4112
sI4177
g4169
sI4178
g1913
sI4179
g4171
sI4180
g1787
sI4181
g4173
sI4182
g2481
sI4183
g4175
sI4184
g4470
sI4185
g4176
sI4186
g4177
sI4187
g4471
sI4188
g4179
sI4189
g2521
sI4190
g4181
sI4191
g4182
sI4192
g4472
sI4193
g4102
sI4194
g850
sI4195
g4185
sI4196
g4186
sI4197
g4187
sI4198
g4188
sI4199
g4189
sI4200
g2620
sI4201
g4191
sI4202
g4192
sI4203
g4193
sI4204
g4194
sI4205
g2861
sI4206
g2365
sI4207
g1498
sI4208
g4199
sI4209
g4200
sI4210
g2703
sI4211
g3300
sI4212
g859
sI4213
g4203
sI4214
g4204
sI4215
g4205
sI4216
g4206
sI4217
g4207
sI4218
g2734
sI4219
g4210
sI4220
g3054
sI4221
g4287
sI4222
g4213
sI4223
g1227
sI4224
g2776
sI4225
g4216
sI4226
g4217
sI4227
g4218
sI4228
g4219
sI4229
g4220
sI4230
g4221
sI4231
g2808
sI4232
g723
sI4233
g74
sI4234
g4029
sI4235
g1890
sI4236
g4227
sI4237
g1221
sI4238
g2038
sI4239
g4230
sI4240
g4231
sI4241
g814
sI4242
g537
sI4243
g2865
sI4244
g4235
sI4245
g2393
sI4246
g497
sI4247
g4238
sI4248
g4239
sI4249
g1353
sI4250
g4241
sI4251
g270
sI4252
g4294
sI4253
g2456
sI4254
g4245
sI4255
g4246
sI4256
g4248
sI4257
g2942
sI4258
g4250
sI4259
g1370
sI4260
g4252
sI4261
g4253
sI4262
g2976
sI4263
g4255
sI4264
g3546
sI4265
g4257
sI4266
g4258
sI4267
g3012
sI4268
g4260
sI4269
g3017
sI4270
g4262
sI4271
g4263
sI4272
g4264
sI4273
g3035
sI4274
g4266
sI4275
g4267
sI4276
g2055
sI4277
g4269
sI4278
g4270
sI4279
g4271
sI4280
g4272
sI4281
g4273
sI4282
g654
sI4283
g4063
sI4284
g4276
sI4285
g4277
sI4286
g4278
sI4287
g4279
sI4288
g4280
sI4289
g4281
sI4290
g3134
sI4291
g887
sI4292
g2457
sI4293
g3598
sI4294
g902
sI4295
g3179
sI4296
g872
sI4297
g4289
sI4298
g4290
sI4299
g4291
sI4300
g4292
sI4301
g4293
sI4302
g3231
sI4303
g4296
sI4304
g4297
sI4305
g3245
sI4306
g3440
sI4307
g4300
sI4308
g408
sI4309
g4302
sI4310
g4303
sI4311
g4304
sI4312
g3316
sI4313
g4306
sI4314
g4307
sI4315
g4308
sI4316
g4309
sI4317
g4310
sI4318
g4311
sI4319
g4313
sI4320
g4314
sI4321
g4315
sI4322
g4316
sI4323
g4317
sI4324
g1263
sI4325
g4319
sI4326
g2897
sI4327
g4321
sI4328
g4322
sI4329
g64
sI4330
g3721
sI4331
g4325
sI4332
g4326
sI4333
g4327
sI4334
g4328
sI4335
g4330
sI4336
g2933
sI4337
g4332
sI4338
g4333
sI4339
g4334
sI4340
g4335
sI4341
g4336
sI4342
g4337
sI4343
g4338
sI4344
g3490
sI4345
g4340
sI4346
g4342
sI4347
g4343
sI4348
g55
sI4349
g4346
sI4350
g4347
sI4351
g4348
sI4352
g4349
sI4353
g4350
sI4354
g4351
sI4355
g4402
sI4356
g3550
sI4357
g3553
sI4358
g573
sI4359
g3583
sI4360
g3589
sI4361
g4359
sI4362
g3602
sI4363
g3605
sI4364
g4362
sI4365
g4363
sI4366
g4364
sI4367
g4365
sI4368
g4366
sI4369
g4367
sI4370
g4059
sI4371
g62
sI4372
g4371
sI4373
g4372
sI4374
g2157
sI4375
g4374
sI4376
g1721
sI4377
g4376
sI4378
g4377
sI4379
g306
sI4380
g4379
sI4381
g1675
sI4382
g1124
sI4383
g4382
sI4384
g4383
sI4385
g1734
sI4386
g4385
sI4387
g4386
sI4388
g3743
sI4389
g3747
sI4390
g2639
sI4391
g4391
sI4392
g316
sI4393
g4393
sI4394
g1943
sI4395
g4395
sI4396
g4396
sI4397
g4397
sI4398
g4398
sI4399
g4399
sI4400
g4435
sI4401
g1892
sI4402
g3811
sI4403
g4404
sI4404
g1894
sI4405
g1049
sI4406
g4407
sI4407
g4409
sI4408
g4410
sI4409
g1437
sI4410
g3864
sI4411
g4413
sI4412
g1813
sI4413
g3737
sI4414
g4508
sI4415
g4418
sI4416
g4419
sI4417
g2844
sI4418
g2813
sI4419
g4422
sI4420
g1092
sI4421
g4424
sI4422
g4425
sI4423
g4426
sI4424
g4427
sI4425
g4428
sI4426
g4429
sI4427
g2390
sI4428
g4431
sI4429
g4387
sI4430
g3985
sI4431
g2636
sI4432
g4436
sI4433
g4437
sI4434
g2924
sI4435
g4439
sI4436
g3184
sI4437
g4441
sI4438
g4442
sI4439
g710
sI4440
g4444
sI4441
g4446
sI4442
g4447
sI4443
g1523
sI4444
g4449
sI4445
g4451
sI4446
g4452
sI4447
g2988
sI4448
g389
sI4449
g2171
sI4450
g4458
sI4451
g4516
sI4452
g951
sI4453
g4461
sI4454
g4462
sI4455
g1605
sI4456
g3863
sI4457
g4465
sI4458
g3557
sI4459
g676
sI4460
g4468
sI4461
g4469
sI4462
g1598
sI4463
g4178
sI4464
g4183
sI4465
g4473
sI4466
g4519
sI4467
g1907
sI4468
g4474
sI4469
g4475
sI4470
g4476
sI4471
g4226
sI4472
g4478
sI4473
g4479
sI4474
g4480
sI4475
g4481
sI4476
g1984
sI4477
g2140
sI4478
g4484
sI4479
g4485
sI4480
g4486
sI4481
g4487
sI4482
g1556
sI4483
g4489
sI4484
g4490
sI4485
g4491
sI4486
g4047
sI4487
g4493
sI4488
g4494
sI4489
g4495
sI4490
g4496
sI4491
g3718
sI4492
g4498
sI4493
g4499
sI4494
g4501
sI4495
g2966
sI4496
g1873
sI4497
g4504
sI4498
g4505
sI4499
g3412
sI4500
g4507
sI4501
g4417
sI4502
g4453
sI4503
g4510
sI4504
g4511
sI4505
g4512
sI4506
g4513
sI4507
g3033
sI4508
g4459
sI4509
g2089
sI4510
g4518
sI4511
g2641
sI4512
g4520
sI4513
g1601
sI4514
g4522
sI4515
g4523
sI4516
g3456
sI4517
g4525
sI4518
g4526
sI4519
g4527
ssb.